

Microchip MPLAB XC8 Assembler V3.10 build 20250813170317 
                                                                                               Tue May 19 01:23:14 2026

Microchip MPLAB XC8 C Compiler v3.10 (Free license) build 20250813170317 Og1 
     1                           	processor	16F877A
     2                           	pagewidth 120
     3                           	opt	flic
     4                           	psect	idataBANK0,global,class=CODE,space=0,delta=2,noexec
     5                           	psect	strings,global,class=STRING,space=0,delta=2,noexec
     6                           	psect	stringtext,global,reloc=256,class=STRCODE,space=0,delta=2,noexec
     7                           	psect	cinit,global,class=CODE,space=0,merge=1,delta=2
     8                           	psect	bssCOMMON,global,class=COMMON,space=1,delta=1,noexec
     9                           	psect	bssBANK0,global,class=BANK0,space=1,delta=1,noexec
    10                           	psect	dataBANK0,global,class=BANK0,space=1,delta=1,noexec
    11                           	psect	cstackCOMMON,global,class=COMMON,space=1,delta=1,noexec
    12                           	psect	cstackBANK0,global,class=BANK0,space=1,delta=1,noexec
    13                           	psect	maintext,global,class=CODE,space=0,split=1,delta=2
    14                           	psect	text1,local,class=CODE,space=0,merge=1,delta=2
    15                           	psect	text2,local,class=CODE,space=0,merge=1,delta=2
    16                           	psect	text3,local,class=CODE,space=0,merge=1,delta=2
    17                           	psect	text4,local,class=CODE,space=0,merge=1,delta=2
    18                           	psect	text5,local,class=CODE,space=0,merge=1,delta=2
    19                           	psect	text6,local,class=CODE,space=0,merge=1,delta=2
    20                           	psect	text7,local,class=CODE,space=0,merge=1,delta=2
    21                           	psect	text8,local,class=CODE,space=0,merge=1,delta=2
    22                           	psect	text9,local,class=CODE,space=0,merge=1,delta=2
    23                           	psect	text10,local,class=CODE,space=0,merge=1,delta=2
    24                           	psect	text11,local,class=CODE,space=0,merge=1,delta=2
    25                           	psect	text12,local,class=CODE,space=0,merge=1,delta=2
    26                           	psect	text13,local,class=CODE,space=0,merge=1,delta=2
    27                           	psect	text14,local,class=CODE,space=0,merge=1,delta=2
    28                           	psect	text15,local,class=CODE,space=0,merge=1,delta=2
    29                           	psect	text16,local,class=CODE,space=0,merge=1,delta=2
    30                           	psect	text17,local,class=CODE,space=0,merge=1,delta=2
    31                           	psect	text18,local,class=CODE,space=0,merge=1,delta=2
    32                           	psect	text19,local,class=CODE,space=0,merge=1,delta=2
    33                           	psect	text20,local,class=CODE,space=0,merge=1,delta=2
    34                           	psect	text21,local,class=CODE,space=0,merge=1,delta=2
    35                           	psect	text22,local,class=CODE,space=0,merge=1,delta=2,group=1
    36                           	psect	text23,local,class=CODE,space=0,merge=1,delta=2
    37                           	psect	text24,local,class=CODE,space=0,merge=1,delta=2
    38                           	psect	text25,local,class=CODE,space=0,merge=1,delta=2
    39                           	psect	text26,local,class=CODE,space=0,merge=1,delta=2
    40                           	psect	text27,local,class=CODE,space=0,merge=1,delta=2,group=1
    41                           	psect	text28,local,class=CODE,space=0,merge=1,delta=2,group=1
    42                           	psect	text29,local,class=CODE,space=0,merge=1,delta=2
    43                           	psect	text30,local,class=CODE,space=0,merge=1,delta=2
    44                           	psect	text31,local,class=CODE,space=0,merge=1,delta=2
    45                           	psect	text32,local,class=CODE,space=0,merge=1,delta=2
    46                           	psect	text33,local,class=CODE,space=0,merge=1,delta=2
    47                           	psect	text34,local,class=CODE,space=0,merge=1,delta=2
    48                           	psect	text35,local,class=CODE,space=0,merge=1,delta=2
    49                           	psect	text36,local,class=CODE,space=0,merge=1,delta=2
    50                           	psect	intentry,global,class=CODE,space=0,delta=2
    51                           	psect	config,global,abs,ovrld,class=CONFIG,space=4,delta=2,noexec
    52                           	dabs	1,0x7E,2
    53     0000                     
    54                           ; Generated 26/03/2025 GMT
    55                           ; 
    56                           ; Copyright © 2025, Microchip Technology Inc. and its subsidiaries ("Microchip")
    57                           ; All rights reserved.
    58                           ; 
    59                           ; This software is developed by Microchip Technology Inc. and its subsidiaries ("Microch
      +                          ip").
    60                           ; 
    61                           ; Redistribution and use in source and binary forms, with or without modification, are
    62                           ; permitted provided that the following conditions are met:
    63                           ; 
    64                           ;     1. Redistributions of source code must retain the above copyright notice, this lis
      +                          t of
    65                           ;        conditions and the following disclaimer.
    66                           ; 
    67                           ;     2. Redistributions in binary form must reproduce the above copyright notice, this 
      +                          list
    68                           ;        of conditions and the following disclaimer in the documentation and/or other
    69                           ;        materials provided with the distribution. Publication is not required when
    70                           ;        this file is used in an embedded application.
    71                           ; 
    72                           ;     3. Microchip's name may not be used to endorse or promote products derived from th
      +                          is
    73                           ;        software without specific prior written permission.
    74                           ; 
    75                           ; THIS SOFTWARE IS PROVIDED BY MICROCHIP "AS IS" AND ANY EXPRESS OR IMPLIED WARRANTIES,
    76                           ; INCLUDING, BUT NOT LIMITED TO, THE IMPLIED WARRANTIES OF MERCHANTABILITY AND FITNESS F
      +                          OR
    77                           ; PURPOSE ARE DISCLAIMED.  IN NO EVENT SHALL MICROCHIP BE LIABLE FOR ANY DIRECT, INDIREC
      +                          T,
    78                           ; INCIDENTAL, SPECIAL, EXEMPLARY, OR CONSEQUENTIAL DAMAGES (INCLUDING BUT NOT LIMITED TO
    79                           ; PROCUREMENT OF SUBSTITUTE GOODS OR SERVICES; LOSS OF USE, DATA OR PROFITS; OR BUSINESS
    80                           ; INTERRUPTION) HOWSOEVER CAUSED AND ON ANY THEORY OF LIABILITY, WHETHER IN CONTRACT, ST
      +                          RICT
    81                           ; LIABILITY, OR TORT (INCLUDING NEGLIGENCE OR OTHERWISE) ARISING IN ANY WAY OUT OF THE U
      +                          SE OF
    82                           ; THIS SOFTWARE, EVEN IF ADVISED OF THE POSSIBILITY OF SUCH DAMAGE.
    83                           ; 
    84                           ; 
    85                           ; Code-generator required, PIC16F877A Definitions
    86                           ; 
    87                           ; SFR Addresses
    88     0004                     fsr             equ	4
    89     0004                     fsr0            equ	4
    90     0000                     indf            equ	0
    91     0000                     indf0           equ	0
    92     0002                     pc              equ	2
    93     0002                     pcl             equ	2
    94     000A                     pclath          equ	10
    95     0003                     status          equ	3
    96     0000                     INDF            equ	0	;# 
    97     0001                     TMR0            equ	1	;# 
    98     0002                     PCL             equ	2	;# 
    99     0003                     STATUS          equ	3	;# 
   100     0004                     FSR             equ	4	;# 
   101     0005                     PORTA           equ	5	;# 
   102     0006                     PORTB           equ	6	;# 
   103     0007                     PORTC           equ	7	;# 
   104     0008                     PORTD           equ	8	;# 
   105     0009                     PORTE           equ	9	;# 
   106     000A                     PCLATH          equ	10	;# 
   107     000B                     INTCON          equ	11	;# 
   108     000C                     PIR1            equ	12	;# 
   109     000D                     PIR2            equ	13	;# 
   110     000E                     TMR1            equ	14	;# 
   111     000E                     TMR1L           equ	14	;# 
   112     000F                     TMR1H           equ	15	;# 
   113     0010                     T1CON           equ	16	;# 
   114     0011                     TMR2            equ	17	;# 
   115     0012                     T2CON           equ	18	;# 
   116     0013                     SSPBUF          equ	19	;# 
   117     0014                     SSPCON          equ	20	;# 
   118     0015                     CCPR1           equ	21	;# 
   119     0015                     CCPR1L          equ	21	;# 
   120     0016                     CCPR1H          equ	22	;# 
   121     0017                     CCP1CON         equ	23	;# 
   122     0018                     RCSTA           equ	24	;# 
   123     0019                     TXREG           equ	25	;# 
   124     001A                     RCREG           equ	26	;# 
   125     001B                     CCPR2           equ	27	;# 
   126     001B                     CCPR2L          equ	27	;# 
   127     001C                     CCPR2H          equ	28	;# 
   128     001D                     CCP2CON         equ	29	;# 
   129     001E                     ADRESH          equ	30	;# 
   130     001F                     ADCON0          equ	31	;# 
   131     0081                     OPTION_REG      equ	129	;# 
   132     0085                     TRISA           equ	133	;# 
   133     0086                     TRISB           equ	134	;# 
   134     0087                     TRISC           equ	135	;# 
   135     0088                     TRISD           equ	136	;# 
   136     0089                     TRISE           equ	137	;# 
   137     008C                     PIE1            equ	140	;# 
   138     008D                     PIE2            equ	141	;# 
   139     008E                     PCON            equ	142	;# 
   140     0091                     SSPCON2         equ	145	;# 
   141     0092                     PR2             equ	146	;# 
   142     0093                     SSPADD          equ	147	;# 
   143     0094                     SSPSTAT         equ	148	;# 
   144     0098                     TXSTA           equ	152	;# 
   145     0099                     SPBRG           equ	153	;# 
   146     009C                     CMCON           equ	156	;# 
   147     009D                     CVRCON          equ	157	;# 
   148     009E                     ADRESL          equ	158	;# 
   149     009F                     ADCON1          equ	159	;# 
   150     010C                     EEDATA          equ	268	;# 
   151     010D                     EEADR           equ	269	;# 
   152     010E                     EEDATH          equ	270	;# 
   153     010F                     EEADRH          equ	271	;# 
   154     018C                     EECON1          equ	396	;# 
   155     018D                     EECON2          equ	397	;# 
   156     0000                     INDF            equ	0	;# 
   157     0001                     TMR0            equ	1	;# 
   158     0002                     PCL             equ	2	;# 
   159     0003                     STATUS          equ	3	;# 
   160     0004                     FSR             equ	4	;# 
   161     0005                     PORTA           equ	5	;# 
   162     0006                     PORTB           equ	6	;# 
   163     0007                     PORTC           equ	7	;# 
   164     0008                     PORTD           equ	8	;# 
   165     0009                     PORTE           equ	9	;# 
   166     000A                     PCLATH          equ	10	;# 
   167     000B                     INTCON          equ	11	;# 
   168     000C                     PIR1            equ	12	;# 
   169     000D                     PIR2            equ	13	;# 
   170     000E                     TMR1            equ	14	;# 
   171     000E                     TMR1L           equ	14	;# 
   172     000F                     TMR1H           equ	15	;# 
   173     0010                     T1CON           equ	16	;# 
   174     0011                     TMR2            equ	17	;# 
   175     0012                     T2CON           equ	18	;# 
   176     0013                     SSPBUF          equ	19	;# 
   177     0014                     SSPCON          equ	20	;# 
   178     0015                     CCPR1           equ	21	;# 
   179     0015                     CCPR1L          equ	21	;# 
   180     0016                     CCPR1H          equ	22	;# 
   181     0017                     CCP1CON         equ	23	;# 
   182     0018                     RCSTA           equ	24	;# 
   183     0019                     TXREG           equ	25	;# 
   184     001A                     RCREG           equ	26	;# 
   185     001B                     CCPR2           equ	27	;# 
   186     001B                     CCPR2L          equ	27	;# 
   187     001C                     CCPR2H          equ	28	;# 
   188     001D                     CCP2CON         equ	29	;# 
   189     001E                     ADRESH          equ	30	;# 
   190     001F                     ADCON0          equ	31	;# 
   191     0081                     OPTION_REG      equ	129	;# 
   192     0085                     TRISA           equ	133	;# 
   193     0086                     TRISB           equ	134	;# 
   194     0087                     TRISC           equ	135	;# 
   195     0088                     TRISD           equ	136	;# 
   196     0089                     TRISE           equ	137	;# 
   197     008C                     PIE1            equ	140	;# 
   198     008D                     PIE2            equ	141	;# 
   199     008E                     PCON            equ	142	;# 
   200     0091                     SSPCON2         equ	145	;# 
   201     0092                     PR2             equ	146	;# 
   202     0093                     SSPADD          equ	147	;# 
   203     0094                     SSPSTAT         equ	148	;# 
   204     0098                     TXSTA           equ	152	;# 
   205     0099                     SPBRG           equ	153	;# 
   206     009C                     CMCON           equ	156	;# 
   207     009D                     CVRCON          equ	157	;# 
   208     009E                     ADRESL          equ	158	;# 
   209     009F                     ADCON1          equ	159	;# 
   210     010C                     EEDATA          equ	268	;# 
   211     010D                     EEADR           equ	269	;# 
   212     010E                     EEDATH          equ	270	;# 
   213     010F                     EEADRH          equ	271	;# 
   214     018C                     EECON1          equ	396	;# 
   215     018D                     EECON2          equ	397	;# 
   216     0000                     INDF            equ	0	;# 
   217     0001                     TMR0            equ	1	;# 
   218     0002                     PCL             equ	2	;# 
   219     0003                     STATUS          equ	3	;# 
   220     0004                     FSR             equ	4	;# 
   221     0005                     PORTA           equ	5	;# 
   222     0006                     PORTB           equ	6	;# 
   223     0007                     PORTC           equ	7	;# 
   224     0008                     PORTD           equ	8	;# 
   225     0009                     PORTE           equ	9	;# 
   226     000A                     PCLATH          equ	10	;# 
   227     000B                     INTCON          equ	11	;# 
   228     000C                     PIR1            equ	12	;# 
   229     000D                     PIR2            equ	13	;# 
   230     000E                     TMR1            equ	14	;# 
   231     000E                     TMR1L           equ	14	;# 
   232     000F                     TMR1H           equ	15	;# 
   233     0010                     T1CON           equ	16	;# 
   234     0011                     TMR2            equ	17	;# 
   235     0012                     T2CON           equ	18	;# 
   236     0013                     SSPBUF          equ	19	;# 
   237     0014                     SSPCON          equ	20	;# 
   238     0015                     CCPR1           equ	21	;# 
   239     0015                     CCPR1L          equ	21	;# 
   240     0016                     CCPR1H          equ	22	;# 
   241     0017                     CCP1CON         equ	23	;# 
   242     0018                     RCSTA           equ	24	;# 
   243     0019                     TXREG           equ	25	;# 
   244     001A                     RCREG           equ	26	;# 
   245     001B                     CCPR2           equ	27	;# 
   246     001B                     CCPR2L          equ	27	;# 
   247     001C                     CCPR2H          equ	28	;# 
   248     001D                     CCP2CON         equ	29	;# 
   249     001E                     ADRESH          equ	30	;# 
   250     001F                     ADCON0          equ	31	;# 
   251     0081                     OPTION_REG      equ	129	;# 
   252     0085                     TRISA           equ	133	;# 
   253     0086                     TRISB           equ	134	;# 
   254     0087                     TRISC           equ	135	;# 
   255     0088                     TRISD           equ	136	;# 
   256     0089                     TRISE           equ	137	;# 
   257     008C                     PIE1            equ	140	;# 
   258     008D                     PIE2            equ	141	;# 
   259     008E                     PCON            equ	142	;# 
   260     0091                     SSPCON2         equ	145	;# 
   261     0092                     PR2             equ	146	;# 
   262     0093                     SSPADD          equ	147	;# 
   263     0094                     SSPSTAT         equ	148	;# 
   264     0098                     TXSTA           equ	152	;# 
   265     0099                     SPBRG           equ	153	;# 
   266     009C                     CMCON           equ	156	;# 
   267     009D                     CVRCON          equ	157	;# 
   268     009E                     ADRESL          equ	158	;# 
   269     009F                     ADCON1          equ	159	;# 
   270     010C                     EEDATA          equ	268	;# 
   271     010D                     EEADR           equ	269	;# 
   272     010E                     EEDATH          equ	270	;# 
   273     010F                     EEADRH          equ	271	;# 
   274     018C                     EECON1          equ	396	;# 
   275     018D                     EECON2          equ	397	;# 
   276     0000                     INDF            equ	0	;# 
   277     0001                     TMR0            equ	1	;# 
   278     0002                     PCL             equ	2	;# 
   279     0003                     STATUS          equ	3	;# 
   280     0004                     FSR             equ	4	;# 
   281     0005                     PORTA           equ	5	;# 
   282     0006                     PORTB           equ	6	;# 
   283     0007                     PORTC           equ	7	;# 
   284     0008                     PORTD           equ	8	;# 
   285     0009                     PORTE           equ	9	;# 
   286     000A                     PCLATH          equ	10	;# 
   287     000B                     INTCON          equ	11	;# 
   288     000C                     PIR1            equ	12	;# 
   289     000D                     PIR2            equ	13	;# 
   290     000E                     TMR1            equ	14	;# 
   291     000E                     TMR1L           equ	14	;# 
   292     000F                     TMR1H           equ	15	;# 
   293     0010                     T1CON           equ	16	;# 
   294     0011                     TMR2            equ	17	;# 
   295     0012                     T2CON           equ	18	;# 
   296     0013                     SSPBUF          equ	19	;# 
   297     0014                     SSPCON          equ	20	;# 
   298     0015                     CCPR1           equ	21	;# 
   299     0015                     CCPR1L          equ	21	;# 
   300     0016                     CCPR1H          equ	22	;# 
   301     0017                     CCP1CON         equ	23	;# 
   302     0018                     RCSTA           equ	24	;# 
   303     0019                     TXREG           equ	25	;# 
   304     001A                     RCREG           equ	26	;# 
   305     001B                     CCPR2           equ	27	;# 
   306     001B                     CCPR2L          equ	27	;# 
   307     001C                     CCPR2H          equ	28	;# 
   308     001D                     CCP2CON         equ	29	;# 
   309     001E                     ADRESH          equ	30	;# 
   310     001F                     ADCON0          equ	31	;# 
   311     0081                     OPTION_REG      equ	129	;# 
   312     0085                     TRISA           equ	133	;# 
   313     0086                     TRISB           equ	134	;# 
   314     0087                     TRISC           equ	135	;# 
   315     0088                     TRISD           equ	136	;# 
   316     0089                     TRISE           equ	137	;# 
   317     008C                     PIE1            equ	140	;# 
   318     008D                     PIE2            equ	141	;# 
   319     008E                     PCON            equ	142	;# 
   320     0091                     SSPCON2         equ	145	;# 
   321     0092                     PR2             equ	146	;# 
   322     0093                     SSPADD          equ	147	;# 
   323     0094                     SSPSTAT         equ	148	;# 
   324     0098                     TXSTA           equ	152	;# 
   325     0099                     SPBRG           equ	153	;# 
   326     009C                     CMCON           equ	156	;# 
   327     009D                     CVRCON          equ	157	;# 
   328     009E                     ADRESL          equ	158	;# 
   329     009F                     ADCON1          equ	159	;# 
   330     010C                     EEDATA          equ	268	;# 
   331     010D                     EEADR           equ	269	;# 
   332     010E                     EEDATH          equ	270	;# 
   333     010F                     EEADRH          equ	271	;# 
   334     018C                     EECON1          equ	396	;# 
   335     018D                     EECON2          equ	397	;# 
   336     0000                     INDF            equ	0	;# 
   337     0001                     TMR0            equ	1	;# 
   338     0002                     PCL             equ	2	;# 
   339     0003                     STATUS          equ	3	;# 
   340     0004                     FSR             equ	4	;# 
   341     0005                     PORTA           equ	5	;# 
   342     0006                     PORTB           equ	6	;# 
   343     0007                     PORTC           equ	7	;# 
   344     0008                     PORTD           equ	8	;# 
   345     0009                     PORTE           equ	9	;# 
   346     000A                     PCLATH          equ	10	;# 
   347     000B                     INTCON          equ	11	;# 
   348     000C                     PIR1            equ	12	;# 
   349     000D                     PIR2            equ	13	;# 
   350     000E                     TMR1            equ	14	;# 
   351     000E                     TMR1L           equ	14	;# 
   352     000F                     TMR1H           equ	15	;# 
   353     0010                     T1CON           equ	16	;# 
   354     0011                     TMR2            equ	17	;# 
   355     0012                     T2CON           equ	18	;# 
   356     0013                     SSPBUF          equ	19	;# 
   357     0014                     SSPCON          equ	20	;# 
   358     0015                     CCPR1           equ	21	;# 
   359     0015                     CCPR1L          equ	21	;# 
   360     0016                     CCPR1H          equ	22	;# 
   361     0017                     CCP1CON         equ	23	;# 
   362     0018                     RCSTA           equ	24	;# 
   363     0019                     TXREG           equ	25	;# 
   364     001A                     RCREG           equ	26	;# 
   365     001B                     CCPR2           equ	27	;# 
   366     001B                     CCPR2L          equ	27	;# 
   367     001C                     CCPR2H          equ	28	;# 
   368     001D                     CCP2CON         equ	29	;# 
   369     001E                     ADRESH          equ	30	;# 
   370     001F                     ADCON0          equ	31	;# 
   371     0081                     OPTION_REG      equ	129	;# 
   372     0085                     TRISA           equ	133	;# 
   373     0086                     TRISB           equ	134	;# 
   374     0087                     TRISC           equ	135	;# 
   375     0088                     TRISD           equ	136	;# 
   376     0089                     TRISE           equ	137	;# 
   377     008C                     PIE1            equ	140	;# 
   378     008D                     PIE2            equ	141	;# 
   379     008E                     PCON            equ	142	;# 
   380     0091                     SSPCON2         equ	145	;# 
   381     0092                     PR2             equ	146	;# 
   382     0093                     SSPADD          equ	147	;# 
   383     0094                     SSPSTAT         equ	148	;# 
   384     0098                     TXSTA           equ	152	;# 
   385     0099                     SPBRG           equ	153	;# 
   386     009C                     CMCON           equ	156	;# 
   387     009D                     CVRCON          equ	157	;# 
   388     009E                     ADRESL          equ	158	;# 
   389     009F                     ADCON1          equ	159	;# 
   390     010C                     EEDATA          equ	268	;# 
   391     010D                     EEADR           equ	269	;# 
   392     010E                     EEDATH          equ	270	;# 
   393     010F                     EEADRH          equ	271	;# 
   394     018C                     EECON1          equ	396	;# 
   395     018D                     EECON2          equ	397	;# 
   396     0000                     INDF            equ	0	;# 
   397     0001                     TMR0            equ	1	;# 
   398     0002                     PCL             equ	2	;# 
   399     0003                     STATUS          equ	3	;# 
   400     0004                     FSR             equ	4	;# 
   401     0005                     PORTA           equ	5	;# 
   402     0006                     PORTB           equ	6	;# 
   403     0007                     PORTC           equ	7	;# 
   404     0008                     PORTD           equ	8	;# 
   405     0009                     PORTE           equ	9	;# 
   406     000A                     PCLATH          equ	10	;# 
   407     000B                     INTCON          equ	11	;# 
   408     000C                     PIR1            equ	12	;# 
   409     000D                     PIR2            equ	13	;# 
   410     000E                     TMR1            equ	14	;# 
   411     000E                     TMR1L           equ	14	;# 
   412     000F                     TMR1H           equ	15	;# 
   413     0010                     T1CON           equ	16	;# 
   414     0011                     TMR2            equ	17	;# 
   415     0012                     T2CON           equ	18	;# 
   416     0013                     SSPBUF          equ	19	;# 
   417     0014                     SSPCON          equ	20	;# 
   418     0015                     CCPR1           equ	21	;# 
   419     0015                     CCPR1L          equ	21	;# 
   420     0016                     CCPR1H          equ	22	;# 
   421     0017                     CCP1CON         equ	23	;# 
   422     0018                     RCSTA           equ	24	;# 
   423     0019                     TXREG           equ	25	;# 
   424     001A                     RCREG           equ	26	;# 
   425     001B                     CCPR2           equ	27	;# 
   426     001B                     CCPR2L          equ	27	;# 
   427     001C                     CCPR2H          equ	28	;# 
   428     001D                     CCP2CON         equ	29	;# 
   429     001E                     ADRESH          equ	30	;# 
   430     001F                     ADCON0          equ	31	;# 
   431     0081                     OPTION_REG      equ	129	;# 
   432     0085                     TRISA           equ	133	;# 
   433     0086                     TRISB           equ	134	;# 
   434     0087                     TRISC           equ	135	;# 
   435     0088                     TRISD           equ	136	;# 
   436     0089                     TRISE           equ	137	;# 
   437     008C                     PIE1            equ	140	;# 
   438     008D                     PIE2            equ	141	;# 
   439     008E                     PCON            equ	142	;# 
   440     0091                     SSPCON2         equ	145	;# 
   441     0092                     PR2             equ	146	;# 
   442     0093                     SSPADD          equ	147	;# 
   443     0094                     SSPSTAT         equ	148	;# 
   444     0098                     TXSTA           equ	152	;# 
   445     0099                     SPBRG           equ	153	;# 
   446     009C                     CMCON           equ	156	;# 
   447     009D                     CVRCON          equ	157	;# 
   448     009E                     ADRESL          equ	158	;# 
   449     009F                     ADCON1          equ	159	;# 
   450     010C                     EEDATA          equ	268	;# 
   451     010D                     EEADR           equ	269	;# 
   452     010E                     EEDATH          equ	270	;# 
   453     010F                     EEADRH          equ	271	;# 
   454     018C                     EECON1          equ	396	;# 
   455     018D                     EECON2          equ	397	;# 
   456     0000                     INDF            equ	0	;# 
   457     0001                     TMR0            equ	1	;# 
   458     0002                     PCL             equ	2	;# 
   459     0003                     STATUS          equ	3	;# 
   460     0004                     FSR             equ	4	;# 
   461     0005                     PORTA           equ	5	;# 
   462     0006                     PORTB           equ	6	;# 
   463     0007                     PORTC           equ	7	;# 
   464     0008                     PORTD           equ	8	;# 
   465     0009                     PORTE           equ	9	;# 
   466     000A                     PCLATH          equ	10	;# 
   467     000B                     INTCON          equ	11	;# 
   468     000C                     PIR1            equ	12	;# 
   469     000D                     PIR2            equ	13	;# 
   470     000E                     TMR1            equ	14	;# 
   471     000E                     TMR1L           equ	14	;# 
   472     000F                     TMR1H           equ	15	;# 
   473     0010                     T1CON           equ	16	;# 
   474     0011                     TMR2            equ	17	;# 
   475     0012                     T2CON           equ	18	;# 
   476     0013                     SSPBUF          equ	19	;# 
   477     0014                     SSPCON          equ	20	;# 
   478     0015                     CCPR1           equ	21	;# 
   479     0015                     CCPR1L          equ	21	;# 
   480     0016                     CCPR1H          equ	22	;# 
   481     0017                     CCP1CON         equ	23	;# 
   482     0018                     RCSTA           equ	24	;# 
   483     0019                     TXREG           equ	25	;# 
   484     001A                     RCREG           equ	26	;# 
   485     001B                     CCPR2           equ	27	;# 
   486     001B                     CCPR2L          equ	27	;# 
   487     001C                     CCPR2H          equ	28	;# 
   488     001D                     CCP2CON         equ	29	;# 
   489     001E                     ADRESH          equ	30	;# 
   490     001F                     ADCON0          equ	31	;# 
   491     0081                     OPTION_REG      equ	129	;# 
   492     0085                     TRISA           equ	133	;# 
   493     0086                     TRISB           equ	134	;# 
   494     0087                     TRISC           equ	135	;# 
   495     0088                     TRISD           equ	136	;# 
   496     0089                     TRISE           equ	137	;# 
   497     008C                     PIE1            equ	140	;# 
   498     008D                     PIE2            equ	141	;# 
   499     008E                     PCON            equ	142	;# 
   500     0091                     SSPCON2         equ	145	;# 
   501     0092                     PR2             equ	146	;# 
   502     0093                     SSPADD          equ	147	;# 
   503     0094                     SSPSTAT         equ	148	;# 
   504     0098                     TXSTA           equ	152	;# 
   505     0099                     SPBRG           equ	153	;# 
   506     009C                     CMCON           equ	156	;# 
   507     009D                     CVRCON          equ	157	;# 
   508     009E                     ADRESL          equ	158	;# 
   509     009F                     ADCON1          equ	159	;# 
   510     010C                     EEDATA          equ	268	;# 
   511     010D                     EEADR           equ	269	;# 
   512     010E                     EEDATH          equ	270	;# 
   513     010F                     EEADRH          equ	271	;# 
   514     018C                     EECON1          equ	396	;# 
   515     018D                     EECON2          equ	397	;# 
   516     0000                     INDF            equ	0	;# 
   517     0001                     TMR0            equ	1	;# 
   518     0002                     PCL             equ	2	;# 
   519     0003                     STATUS          equ	3	;# 
   520     0004                     FSR             equ	4	;# 
   521     0005                     PORTA           equ	5	;# 
   522     0006                     PORTB           equ	6	;# 
   523     0007                     PORTC           equ	7	;# 
   524     0008                     PORTD           equ	8	;# 
   525     0009                     PORTE           equ	9	;# 
   526     000A                     PCLATH          equ	10	;# 
   527     000B                     INTCON          equ	11	;# 
   528     000C                     PIR1            equ	12	;# 
   529     000D                     PIR2            equ	13	;# 
   530     000E                     TMR1            equ	14	;# 
   531     000E                     TMR1L           equ	14	;# 
   532     000F                     TMR1H           equ	15	;# 
   533     0010                     T1CON           equ	16	;# 
   534     0011                     TMR2            equ	17	;# 
   535     0012                     T2CON           equ	18	;# 
   536     0013                     SSPBUF          equ	19	;# 
   537     0014                     SSPCON          equ	20	;# 
   538     0015                     CCPR1           equ	21	;# 
   539     0015                     CCPR1L          equ	21	;# 
   540     0016                     CCPR1H          equ	22	;# 
   541     0017                     CCP1CON         equ	23	;# 
   542     0018                     RCSTA           equ	24	;# 
   543     0019                     TXREG           equ	25	;# 
   544     001A                     RCREG           equ	26	;# 
   545     001B                     CCPR2           equ	27	;# 
   546     001B                     CCPR2L          equ	27	;# 
   547     001C                     CCPR2H          equ	28	;# 
   548     001D                     CCP2CON         equ	29	;# 
   549     001E                     ADRESH          equ	30	;# 
   550     001F                     ADCON0          equ	31	;# 
   551     0081                     OPTION_REG      equ	129	;# 
   552     0085                     TRISA           equ	133	;# 
   553     0086                     TRISB           equ	134	;# 
   554     0087                     TRISC           equ	135	;# 
   555     0088                     TRISD           equ	136	;# 
   556     0089                     TRISE           equ	137	;# 
   557     008C                     PIE1            equ	140	;# 
   558     008D                     PIE2            equ	141	;# 
   559     008E                     PCON            equ	142	;# 
   560     0091                     SSPCON2         equ	145	;# 
   561     0092                     PR2             equ	146	;# 
   562     0093                     SSPADD          equ	147	;# 
   563     0094                     SSPSTAT         equ	148	;# 
   564     0098                     TXSTA           equ	152	;# 
   565     0099                     SPBRG           equ	153	;# 
   566     009C                     CMCON           equ	156	;# 
   567     009D                     CVRCON          equ	157	;# 
   568     009E                     ADRESL          equ	158	;# 
   569     009F                     ADCON1          equ	159	;# 
   570     010C                     EEDATA          equ	268	;# 
   571     010D                     EEADR           equ	269	;# 
   572     010E                     EEDATH          equ	270	;# 
   573     010F                     EEADRH          equ	271	;# 
   574     018C                     EECON1          equ	396	;# 
   575     018D                     EECON2          equ	397	;# 
   576     0000                     INDF            equ	0	;# 
   577     0001                     TMR0            equ	1	;# 
   578     0002                     PCL             equ	2	;# 
   579     0003                     STATUS          equ	3	;# 
   580     0004                     FSR             equ	4	;# 
   581     0005                     PORTA           equ	5	;# 
   582     0006                     PORTB           equ	6	;# 
   583     0007                     PORTC           equ	7	;# 
   584     0008                     PORTD           equ	8	;# 
   585     0009                     PORTE           equ	9	;# 
   586     000A                     PCLATH          equ	10	;# 
   587     000B                     INTCON          equ	11	;# 
   588     000C                     PIR1            equ	12	;# 
   589     000D                     PIR2            equ	13	;# 
   590     000E                     TMR1            equ	14	;# 
   591     000E                     TMR1L           equ	14	;# 
   592     000F                     TMR1H           equ	15	;# 
   593     0010                     T1CON           equ	16	;# 
   594     0011                     TMR2            equ	17	;# 
   595     0012                     T2CON           equ	18	;# 
   596     0013                     SSPBUF          equ	19	;# 
   597     0014                     SSPCON          equ	20	;# 
   598     0015                     CCPR1           equ	21	;# 
   599     0015                     CCPR1L          equ	21	;# 
   600     0016                     CCPR1H          equ	22	;# 
   601     0017                     CCP1CON         equ	23	;# 
   602     0018                     RCSTA           equ	24	;# 
   603     0019                     TXREG           equ	25	;# 
   604     001A                     RCREG           equ	26	;# 
   605     001B                     CCPR2           equ	27	;# 
   606     001B                     CCPR2L          equ	27	;# 
   607     001C                     CCPR2H          equ	28	;# 
   608     001D                     CCP2CON         equ	29	;# 
   609     001E                     ADRESH          equ	30	;# 
   610     001F                     ADCON0          equ	31	;# 
   611     0081                     OPTION_REG      equ	129	;# 
   612     0085                     TRISA           equ	133	;# 
   613     0086                     TRISB           equ	134	;# 
   614     0087                     TRISC           equ	135	;# 
   615     0088                     TRISD           equ	136	;# 
   616     0089                     TRISE           equ	137	;# 
   617     008C                     PIE1            equ	140	;# 
   618     008D                     PIE2            equ	141	;# 
   619     008E                     PCON            equ	142	;# 
   620     0091                     SSPCON2         equ	145	;# 
   621     0092                     PR2             equ	146	;# 
   622     0093                     SSPADD          equ	147	;# 
   623     0094                     SSPSTAT         equ	148	;# 
   624     0098                     TXSTA           equ	152	;# 
   625     0099                     SPBRG           equ	153	;# 
   626     009C                     CMCON           equ	156	;# 
   627     009D                     CVRCON          equ	157	;# 
   628     009E                     ADRESL          equ	158	;# 
   629     009F                     ADCON1          equ	159	;# 
   630     010C                     EEDATA          equ	268	;# 
   631     010D                     EEADR           equ	269	;# 
   632     010E                     EEDATH          equ	270	;# 
   633     010F                     EEADRH          equ	271	;# 
   634     018C                     EECON1          equ	396	;# 
   635     018D                     EECON2          equ	397	;# 
   636     0000                     INDF            equ	0	;# 
   637     0001                     TMR0            equ	1	;# 
   638     0002                     PCL             equ	2	;# 
   639     0003                     STATUS          equ	3	;# 
   640     0004                     FSR             equ	4	;# 
   641     0005                     PORTA           equ	5	;# 
   642     0006                     PORTB           equ	6	;# 
   643     0007                     PORTC           equ	7	;# 
   644     0008                     PORTD           equ	8	;# 
   645     0009                     PORTE           equ	9	;# 
   646     000A                     PCLATH          equ	10	;# 
   647     000B                     INTCON          equ	11	;# 
   648     000C                     PIR1            equ	12	;# 
   649     000D                     PIR2            equ	13	;# 
   650     000E                     TMR1            equ	14	;# 
   651     000E                     TMR1L           equ	14	;# 
   652     000F                     TMR1H           equ	15	;# 
   653     0010                     T1CON           equ	16	;# 
   654     0011                     TMR2            equ	17	;# 
   655     0012                     T2CON           equ	18	;# 
   656     0013                     SSPBUF          equ	19	;# 
   657     0014                     SSPCON          equ	20	;# 
   658     0015                     CCPR1           equ	21	;# 
   659     0015                     CCPR1L          equ	21	;# 
   660     0016                     CCPR1H          equ	22	;# 
   661     0017                     CCP1CON         equ	23	;# 
   662     0018                     RCSTA           equ	24	;# 
   663     0019                     TXREG           equ	25	;# 
   664     001A                     RCREG           equ	26	;# 
   665     001B                     CCPR2           equ	27	;# 
   666     001B                     CCPR2L          equ	27	;# 
   667     001C                     CCPR2H          equ	28	;# 
   668     001D                     CCP2CON         equ	29	;# 
   669     001E                     ADRESH          equ	30	;# 
   670     001F                     ADCON0          equ	31	;# 
   671     0081                     OPTION_REG      equ	129	;# 
   672     0085                     TRISA           equ	133	;# 
   673     0086                     TRISB           equ	134	;# 
   674     0087                     TRISC           equ	135	;# 
   675     0088                     TRISD           equ	136	;# 
   676     0089                     TRISE           equ	137	;# 
   677     008C                     PIE1            equ	140	;# 
   678     008D                     PIE2            equ	141	;# 
   679     008E                     PCON            equ	142	;# 
   680     0091                     SSPCON2         equ	145	;# 
   681     0092                     PR2             equ	146	;# 
   682     0093                     SSPADD          equ	147	;# 
   683     0094                     SSPSTAT         equ	148	;# 
   684     0098                     TXSTA           equ	152	;# 
   685     0099                     SPBRG           equ	153	;# 
   686     009C                     CMCON           equ	156	;# 
   687     009D                     CVRCON          equ	157	;# 
   688     009E                     ADRESL          equ	158	;# 
   689     009F                     ADCON1          equ	159	;# 
   690     010C                     EEDATA          equ	268	;# 
   691     010D                     EEADR           equ	269	;# 
   692     010E                     EEDATH          equ	270	;# 
   693     010F                     EEADRH          equ	271	;# 
   694     018C                     EECON1          equ	396	;# 
   695     018D                     EECON2          equ	397	;# 
   696     0000                     INDF            equ	0	;# 
   697     0001                     TMR0            equ	1	;# 
   698     0002                     PCL             equ	2	;# 
   699     0003                     STATUS          equ	3	;# 
   700     0004                     FSR             equ	4	;# 
   701     0005                     PORTA           equ	5	;# 
   702     0006                     PORTB           equ	6	;# 
   703     0007                     PORTC           equ	7	;# 
   704     0008                     PORTD           equ	8	;# 
   705     0009                     PORTE           equ	9	;# 
   706     000A                     PCLATH          equ	10	;# 
   707     000B                     INTCON          equ	11	;# 
   708     000C                     PIR1            equ	12	;# 
   709     000D                     PIR2            equ	13	;# 
   710     000E                     TMR1            equ	14	;# 
   711     000E                     TMR1L           equ	14	;# 
   712     000F                     TMR1H           equ	15	;# 
   713     0010                     T1CON           equ	16	;# 
   714     0011                     TMR2            equ	17	;# 
   715     0012                     T2CON           equ	18	;# 
   716     0013                     SSPBUF          equ	19	;# 
   717     0014                     SSPCON          equ	20	;# 
   718     0015                     CCPR1           equ	21	;# 
   719     0015                     CCPR1L          equ	21	;# 
   720     0016                     CCPR1H          equ	22	;# 
   721     0017                     CCP1CON         equ	23	;# 
   722     0018                     RCSTA           equ	24	;# 
   723     0019                     TXREG           equ	25	;# 
   724     001A                     RCREG           equ	26	;# 
   725     001B                     CCPR2           equ	27	;# 
   726     001B                     CCPR2L          equ	27	;# 
   727     001C                     CCPR2H          equ	28	;# 
   728     001D                     CCP2CON         equ	29	;# 
   729     001E                     ADRESH          equ	30	;# 
   730     001F                     ADCON0          equ	31	;# 
   731     0081                     OPTION_REG      equ	129	;# 
   732     0085                     TRISA           equ	133	;# 
   733     0086                     TRISB           equ	134	;# 
   734     0087                     TRISC           equ	135	;# 
   735     0088                     TRISD           equ	136	;# 
   736     0089                     TRISE           equ	137	;# 
   737     008C                     PIE1            equ	140	;# 
   738     008D                     PIE2            equ	141	;# 
   739     008E                     PCON            equ	142	;# 
   740     0091                     SSPCON2         equ	145	;# 
   741     0092                     PR2             equ	146	;# 
   742     0093                     SSPADD          equ	147	;# 
   743     0094                     SSPSTAT         equ	148	;# 
   744     0098                     TXSTA           equ	152	;# 
   745     0099                     SPBRG           equ	153	;# 
   746     009C                     CMCON           equ	156	;# 
   747     009D                     CVRCON          equ	157	;# 
   748     009E                     ADRESL          equ	158	;# 
   749     009F                     ADCON1          equ	159	;# 
   750     010C                     EEDATA          equ	268	;# 
   751     010D                     EEADR           equ	269	;# 
   752     010E                     EEDATH          equ	270	;# 
   753     010F                     EEADRH          equ	271	;# 
   754     018C                     EECON1          equ	396	;# 
   755     018D                     EECON2          equ	397	;# 
   756     0000                     INDF            equ	0	;# 
   757     0001                     TMR0            equ	1	;# 
   758     0002                     PCL             equ	2	;# 
   759     0003                     STATUS          equ	3	;# 
   760     0004                     FSR             equ	4	;# 
   761     0005                     PORTA           equ	5	;# 
   762     0006                     PORTB           equ	6	;# 
   763     0007                     PORTC           equ	7	;# 
   764     0008                     PORTD           equ	8	;# 
   765     0009                     PORTE           equ	9	;# 
   766     000A                     PCLATH          equ	10	;# 
   767     000B                     INTCON          equ	11	;# 
   768     000C                     PIR1            equ	12	;# 
   769     000D                     PIR2            equ	13	;# 
   770     000E                     TMR1            equ	14	;# 
   771     000E                     TMR1L           equ	14	;# 
   772     000F                     TMR1H           equ	15	;# 
   773     0010                     T1CON           equ	16	;# 
   774     0011                     TMR2            equ	17	;# 
   775     0012                     T2CON           equ	18	;# 
   776     0013                     SSPBUF          equ	19	;# 
   777     0014                     SSPCON          equ	20	;# 
   778     0015                     CCPR1           equ	21	;# 
   779     0015                     CCPR1L          equ	21	;# 
   780     0016                     CCPR1H          equ	22	;# 
   781     0017                     CCP1CON         equ	23	;# 
   782     0018                     RCSTA           equ	24	;# 
   783     0019                     TXREG           equ	25	;# 
   784     001A                     RCREG           equ	26	;# 
   785     001B                     CCPR2           equ	27	;# 
   786     001B                     CCPR2L          equ	27	;# 
   787     001C                     CCPR2H          equ	28	;# 
   788     001D                     CCP2CON         equ	29	;# 
   789     001E                     ADRESH          equ	30	;# 
   790     001F                     ADCON0          equ	31	;# 
   791     0081                     OPTION_REG      equ	129	;# 
   792     0085                     TRISA           equ	133	;# 
   793     0086                     TRISB           equ	134	;# 
   794     0087                     TRISC           equ	135	;# 
   795     0088                     TRISD           equ	136	;# 
   796     0089                     TRISE           equ	137	;# 
   797     008C                     PIE1            equ	140	;# 
   798     008D                     PIE2            equ	141	;# 
   799     008E                     PCON            equ	142	;# 
   800     0091                     SSPCON2         equ	145	;# 
   801     0092                     PR2             equ	146	;# 
   802     0093                     SSPADD          equ	147	;# 
   803     0094                     SSPSTAT         equ	148	;# 
   804     0098                     TXSTA           equ	152	;# 
   805     0099                     SPBRG           equ	153	;# 
   806     009C                     CMCON           equ	156	;# 
   807     009D                     CVRCON          equ	157	;# 
   808     009E                     ADRESL          equ	158	;# 
   809     009F                     ADCON1          equ	159	;# 
   810     010C                     EEDATA          equ	268	;# 
   811     010D                     EEADR           equ	269	;# 
   812     010E                     EEDATH          equ	270	;# 
   813     010F                     EEADRH          equ	271	;# 
   814     018C                     EECON1          equ	396	;# 
   815     018D                     EECON2          equ	397	;# 
   816                           
   817                           	psect	idataBANK0
   818     0BD9                     __pidataBANK0:
   819                           
   820                           ;initializer for _g_pulse_ticks
   821     0BD9  34AA               	retlw	170
   822     0BDA  3403               	retlw	3
   823                           
   824                           ;initializer for _eyes_open
   825     0BDB  3401               	retlw	1
   826                           
   827                           ;initializer for _lcd_backlight
   828     0BDC  3408               	retlw	8
   829     000E                     _TMR1           set	14
   830     0005                     _PORTAbits      set	5
   831     0006                     _PORTBbits      set	6
   832     0008                     _PORTDbits      set	8
   833     0009                     _PORTE          set	9
   834     0008                     _PORTD          set	8
   835     0007                     _PORTC          set	7
   836     0006                     _PORTB          set	6
   837     0005                     _PORTA          set	5
   838     0013                     _SSPBUF         set	19
   839     0014                     _SSPCON         set	20
   840     0010                     _T1CONbits      set	16
   841     0007                     _PORTCbits      set	7
   842     000B                     _INTCONbits     set	11
   843     000B                     _INTCON         set	11
   844     000C                     _PIR1           set	12
   845     000E                     _TMR1L          set	14
   846     000F                     _TMR1H          set	15
   847     0010                     _T1CON          set	16
   848     0019                     _TXREG          set	25
   849     001A                     _RCREG          set	26
   850     000C                     _PIR1bits       set	12
   851     0018                     _RCSTAbits      set	24
   852     0060                     _TMR1IF         set	96
   853     0085                     _TRISAbits      set	133
   854     0081                     _OPTION_REGbits set	129
   855     0086                     _TRISBbits      set	134
   856     009F                     _ADCON1         set	159
   857     0088                     _TRISDbits      set	136
   858     0081                     _OPTION_REG     set	129
   859     0089                     _TRISE          set	137
   860     0088                     _TRISD          set	136
   861     0087                     _TRISC          set	135
   862     0086                     _TRISB          set	134
   863     0085                     _TRISA          set	133
   864     0091                     _SSPCON2bits    set	145
   865     0091                     _SSPCON2        set	145
   866     0093                     _SSPADD         set	147
   867     0094                     _SSPSTAT        set	148
   868     008C                     _PIE1bits       set	140
   869     008C                     _PIE1           set	140
   870     0087                     _TRISCbits      set	135
   871     0098                     _TXSTAbits      set	152
   872     0099                     _SPBRG          set	153
   873                           
   874                           	psect	strings
   875     0800                     __pstrings:
   876     0800                     stringtab:
   877     0800                     __stringtab:
   878                           
   879                           ;	String table - string pointers are 2 bytes each
   880     0800  1BFF               	btfsc	btemp+1,7
   881     0801  280A               	ljmp	stringcode
   882     0802  1383               	bcf	3,7
   883     0803  187F               	btfsc	btemp+1,0
   884     0804  1783               	bsf	3,7
   885     0805  0800               	movf	0,w
   886     0806  0A84               	incf	4,f
   887     0807  1903               	skipnz
   888     0808  0AFF               	incf	btemp+1,f
   889     0809  0008               	return
   890     080A                     stringcode:
   891     080A  087F               	movf	btemp+1,w
   892     080B  397F               	andlw	127
   893     080C  008A               	movwf	10
   894     080D  0804               	movf	4,w
   895     080E  0A84               	incf	4,f
   896     080F  1903               	skipnz
   897     0810  0AFF               	incf	btemp+1,f
   898     0811  0082               	movwf	2
   899     0812                     __stringbase:
   900     0812                     __end_of__stringtab:
   901                           
   902                           	psect	stringtext
   903     0500                     __pstringtext:
   904     0500                     STR_37:
   905     0500  3446               	retlw	70	;'F'
   906     0501  343A               	retlw	58	;':'
   907     0502  342D               	retlw	45	;'-'
   908     0503  342D               	retlw	45	;'-'
   909     0504  342D               	retlw	45	;'-'
   910     0505  3420               	retlw	32	;' '
   911     0506  3420               	retlw	32	;' '
   912     0507  3420               	retlw	32	;' '
   913     0508  3420               	retlw	32	;' '
   914     0509  3420               	retlw	32	;' '
   915     050A  3420               	retlw	32	;' '
   916     050B  3420               	retlw	32	;' '
   917     050C  3420               	retlw	32	;' '
   918     050D  3420               	retlw	32	;' '
   919     050E  3420               	retlw	32	;' '
   920     050F  3420               	retlw	32	;' '
   921     0510  3400               	retlw	0
   922     0511                     STR_30:
   923     0511  3443               	retlw	67	;'C'
   924     0512  344D               	retlw	77	;'M'
   925     0513  3444               	retlw	68	;'D'
   926     0514  343A               	retlw	58	;':'
   927     0515  3420               	retlw	32	;' '
   928     0516  3453               	retlw	83	;'S'
   929     0517  3454               	retlw	84	;'T'
   930     0518  344F               	retlw	79	;'O'
   931     0519  3450               	retlw	80	;'P'
   932     051A  3420               	retlw	32	;' '
   933     051B  3420               	retlw	32	;' '
   934     051C  3420               	retlw	32	;' '
   935     051D  3420               	retlw	32	;' '
   936     051E  3420               	retlw	32	;' '
   937     051F  3420               	retlw	32	;' '
   938     0520  3420               	retlw	32	;' '
   939     0521  3400               	retlw	0
   940     0522                     STR_28:
   941     0522  3443               	retlw	67	;'C'
   942     0523  344D               	retlw	77	;'M'
   943     0524  3444               	retlw	68	;'D'
   944     0525  343A               	retlw	58	;':'
   945     0526  3420               	retlw	32	;' '
   946     0527  344C               	retlw	76	;'L'
   947     0528  3445               	retlw	69	;'E'
   948     0529  3446               	retlw	70	;'F'
   949     052A  3454               	retlw	84	;'T'
   950     052B  3420               	retlw	32	;' '
   951     052C  3420               	retlw	32	;' '
   952     052D  3420               	retlw	32	;' '
   953     052E  3420               	retlw	32	;' '
   954     052F  3420               	retlw	32	;' '
   955     0530  3420               	retlw	32	;' '
   956     0531  3420               	retlw	32	;' '
   957     0532  3400               	retlw	0
   958     0533                     STR_24:
   959     0533  344D               	retlw	77	;'M'
   960     0534  346F               	retlw	111	;'o'
   961     0535  3464               	retlw	100	;'d'
   962     0536  3465               	retlw	101	;'e'
   963     0537  343A               	retlw	58	;':'
   964     0538  3420               	retlw	32	;' '
   965     0539  3441               	retlw	65	;'A'
   966     053A  3455               	retlw	85	;'U'
   967     053B  3454               	retlw	84	;'T'
   968     053C  344F               	retlw	79	;'O'
   969     053D  3420               	retlw	32	;' '
   970     053E  3420               	retlw	32	;' '
   971     053F  3420               	retlw	32	;' '
   972     0540  3420               	retlw	32	;' '
   973     0541  3420               	retlw	32	;' '
   974     0542  3420               	retlw	32	;' '
   975     0543  3400               	retlw	0
   976     0544                     STR_29:
   977     0544  3443               	retlw	67	;'C'
   978     0545  344D               	retlw	77	;'M'
   979     0546  3444               	retlw	68	;'D'
   980     0547  343A               	retlw	58	;':'
   981     0548  3420               	retlw	32	;' '
   982     0549  3452               	retlw	82	;'R'
   983     054A  3449               	retlw	73	;'I'
   984     054B  3447               	retlw	71	;'G'
   985     054C  3448               	retlw	72	;'H'
   986     054D  3454               	retlw	84	;'T'
   987     054E  3420               	retlw	32	;' '
   988     054F  3420               	retlw	32	;' '
   989     0550  3420               	retlw	32	;' '
   990     0551  3420               	retlw	32	;' '
   991     0552  3420               	retlw	32	;' '
   992     0553  3420               	retlw	32	;' '
   993     0554  3400               	retlw	0
   994     0555                     STR_23:
   995     0555  3441               	retlw	65	;'A'
   996     0556  3470               	retlw	112	;'p'
   997     0557  3470               	retlw	112	;'p'
   998     0558  3420               	retlw	32	;' '
   999     0559  3443               	retlw	67	;'C'
  1000     055A  346F               	retlw	111	;'o'
  1001     055B  346E               	retlw	110	;'n'
  1002     055C  3474               	retlw	116	;'t'
  1003     055D  3472               	retlw	114	;'r'
  1004     055E  346F               	retlw	111	;'o'
  1005     055F  346C               	retlw	108	;'l'
  1006     0560  3420               	retlw	32	;' '
  1007     0561  3420               	retlw	32	;' '
  1008     0562  3420               	retlw	32	;' '
  1009     0563  3420               	retlw	32	;' '
  1010     0564  3420               	retlw	32	;' '
  1011     0565  3400               	retlw	0
  1012     0566                     STR_36:
  1013     0566  3445               	retlw	69	;'E'
  1014     0567  3479               	retlw	121	;'y'
  1015     0568  3465               	retlw	101	;'e'
  1016     0569  3473               	retlw	115	;'s'
  1017     056A  3420               	retlw	32	;' '
  1018     056B  3443               	retlw	67	;'C'
  1019     056C  346C               	retlw	108	;'l'
  1020     056D  346F               	retlw	111	;'o'
  1021     056E  3473               	retlw	115	;'s'
  1022     056F  3465               	retlw	101	;'e'
  1023     0570  3464               	retlw	100	;'d'
  1024     0571  3421               	retlw	33	;'!'
  1025     0572  3420               	retlw	32	;' '
  1026     0573  3420               	retlw	32	;' '
  1027     0574  3420               	retlw	32	;' '
  1028     0575  3420               	retlw	32	;' '
  1029     0576  3400               	retlw	0
  1030     0577                     STR_26:
  1031     0577  3443               	retlw	67	;'C'
  1032     0578  344D               	retlw	77	;'M'
  1033     0579  3444               	retlw	68	;'D'
  1034     057A  343A               	retlw	58	;':'
  1035     057B  3420               	retlw	32	;' '
  1036     057C  3446               	retlw	70	;'F'
  1037     057D  344F               	retlw	79	;'O'
  1038     057E  3452               	retlw	82	;'R'
  1039     057F  3457               	retlw	87	;'W'
  1040     0580  3441               	retlw	65	;'A'
  1041     0581  3452               	retlw	82	;'R'
  1042     0582  3444               	retlw	68	;'D'
  1043     0583  3420               	retlw	32	;' '
  1044     0584  3420               	retlw	32	;' '
  1045     0585  3420               	retlw	32	;' '
  1046     0586  3420               	retlw	32	;' '
  1047     0587  3400               	retlw	0
  1048     0588                     STR_27:
  1049     0588  3443               	retlw	67	;'C'
  1050     0589  344D               	retlw	77	;'M'
  1051     058A  3444               	retlw	68	;'D'
  1052     058B  343A               	retlw	58	;':'
  1053     058C  3420               	retlw	32	;' '
  1054     058D  3452               	retlw	82	;'R'
  1055     058E  3445               	retlw	69	;'E'
  1056     058F  3456               	retlw	86	;'V'
  1057     0590  3445               	retlw	69	;'E'
  1058     0591  3452               	retlw	82	;'R'
  1059     0592  3453               	retlw	83	;'S'
  1060     0593  3445               	retlw	69	;'E'
  1061     0594  3420               	retlw	32	;' '
  1062     0595  3420               	retlw	32	;' '
  1063     0596  3420               	retlw	32	;' '
  1064     0597  3420               	retlw	32	;' '
  1065     0598  3400               	retlw	0
  1066     0599                     STR_22:
  1067     0599  344D               	retlw	77	;'M'
  1068     059A  346F               	retlw	111	;'o'
  1069     059B  3464               	retlw	100	;'d'
  1070     059C  3465               	retlw	101	;'e'
  1071     059D  343A               	retlw	58	;':'
  1072     059E  3420               	retlw	32	;' '
  1073     059F  344D               	retlw	77	;'M'
  1074     05A0  3441               	retlw	65	;'A'
  1075     05A1  344E               	retlw	78	;'N'
  1076     05A2  3455               	retlw	85	;'U'
  1077     05A3  3441               	retlw	65	;'A'
  1078     05A4  344C               	retlw	76	;'L'
  1079     05A5  3420               	retlw	32	;' '
  1080     05A6  3420               	retlw	32	;' '
  1081     05A7  3420               	retlw	32	;' '
  1082     05A8  3420               	retlw	32	;' '
  1083     05A9  3400               	retlw	0
  1084     05AA                     STR_25:
  1085     05AA  3441               	retlw	65	;'A'
  1086     05AB  3475               	retlw	117	;'u'
  1087     05AC  3474               	retlw	116	;'t'
  1088     05AD  346F               	retlw	111	;'o'
  1089     05AE  346E               	retlw	110	;'n'
  1090     05AF  346F               	retlw	111	;'o'
  1091     05B0  346D               	retlw	109	;'m'
  1092     05B1  346F               	retlw	111	;'o'
  1093     05B2  3475               	retlw	117	;'u'
  1094     05B3  3473               	retlw	115	;'s'
  1095     05B4  342E               	retlw	46	;'.'
  1096     05B5  342E               	retlw	46	;'.'
  1097     05B6  342E               	retlw	46	;'.'
  1098     05B7  3420               	retlw	32	;' '
  1099     05B8  3420               	retlw	32	;' '
  1100     05B9  3420               	retlw	32	;' '
  1101     05BA  3400               	retlw	0
  1102     05BB                     STR_38:
  1103     05BB  344C               	retlw	76	;'L'
  1104     05BC  343A               	retlw	58	;':'
  1105     05BD  342D               	retlw	45	;'-'
  1106     05BE  342D               	retlw	45	;'-'
  1107     05BF  342D               	retlw	45	;'-'
  1108     05C0  3420               	retlw	32	;' '
  1109     05C1  3420               	retlw	32	;' '
  1110     05C2  3420               	retlw	32	;' '
  1111     05C3  3420               	retlw	32	;' '
  1112     05C4  3452               	retlw	82	;'R'
  1113     05C5  343A               	retlw	58	;':'
  1114     05C6  342D               	retlw	45	;'-'
  1115     05C7  342D               	retlw	45	;'-'
  1116     05C8  342D               	retlw	45	;'-'
  1117     05C9  3420               	retlw	32	;' '
  1118     05CA  3420               	retlw	32	;' '
  1119     05CB  3400               	retlw	0
  1120     05CC                     STR_33:
  1121     05CC  3421               	retlw	33	;'!'
  1122     05CD  3421               	retlw	33	;'!'
  1123     05CE  3420               	retlw	32	;' '
  1124     05CF  344E               	retlw	78	;'N'
  1125     05D0  344F               	retlw	79	;'O'
  1126     05D1  3420               	retlw	32	;' '
  1127     05D2  3453               	retlw	83	;'S'
  1128     05D3  3445               	retlw	69	;'E'
  1129     05D4  3441               	retlw	65	;'A'
  1130     05D5  3454               	retlw	84	;'T'
  1131     05D6  3442               	retlw	66	;'B'
  1132     05D7  3445               	retlw	69	;'E'
  1133     05D8  344C               	retlw	76	;'L'
  1134     05D9  3454               	retlw	84	;'T'
  1135     05DA  3420               	retlw	32	;' '
  1136     05DB  3421               	retlw	33	;'!'
  1137     05DC  3400               	retlw	0
  1138     05DD                     STR_35:
  1139     05DD  3421               	retlw	33	;'!'
  1140     05DE  3421               	retlw	33	;'!'
  1141     05DF  3420               	retlw	32	;' '
  1142     05E0  3444               	retlw	68	;'D'
  1143     05E1  3452               	retlw	82	;'R'
  1144     05E2  344F               	retlw	79	;'O'
  1145     05E3  3457               	retlw	87	;'W'
  1146     05E4  3453               	retlw	83	;'S'
  1147     05E5  3459               	retlw	89	;'Y'
  1148     05E6  3420               	retlw	32	;' '
  1149     05E7  3444               	retlw	68	;'D'
  1150     05E8  3452               	retlw	82	;'R'
  1151     05E9  3449               	retlw	73	;'I'
  1152     05EA  3456               	retlw	86	;'V'
  1153     05EB  3445               	retlw	69	;'E'
  1154     05EC  3452               	retlw	82	;'R'
  1155     05ED  3400               	retlw	0
  1156     05EE                     STR_32:
  1157     05EE  3443               	retlw	67	;'C'
  1158     05EF  3461               	retlw	97	;'a'
  1159     05F0  3472               	retlw	114	;'r'
  1160     05F1  3420               	retlw	32	;' '
  1161     05F2  3469               	retlw	105	;'i'
  1162     05F3  3473               	retlw	115	;'s'
  1163     05F4  3420               	retlw	32	;' '
  1164     05F5  344C               	retlw	76	;'L'
  1165     05F6  344F               	retlw	79	;'O'
  1166     05F7  3443               	retlw	67	;'C'
  1167     05F8  344B               	retlw	75	;'K'
  1168     05F9  3445               	retlw	69	;'E'
  1169     05FA  3444               	retlw	68	;'D'
  1170     05FB  3420               	retlw	32	;' '
  1171     05FC  3420               	retlw	32	;' '
  1172     05FD  3400               	retlw	0
  1173     05FE                     STR_31:
  1174     05FE  3421               	retlw	33	;'!'
  1175     05FF  3421               	retlw	33	;'!'
  1176     0600  3420               	retlw	32	;' '
  1177     0601  3444               	retlw	68	;'D'
  1178     0602  344F               	retlw	79	;'O'
  1179     0603  344F               	retlw	79	;'O'
  1180     0604  3452               	retlw	82	;'R'
  1181     0605  3420               	retlw	32	;' '
  1182     0606  344F               	retlw	79	;'O'
  1183     0607  3450               	retlw	80	;'P'
  1184     0608  3445               	retlw	69	;'E'
  1185     0609  344E               	retlw	78	;'N'
  1186     060A  3420               	retlw	32	;' '
  1187     060B  3421               	retlw	33	;'!'
  1188     060C  3421               	retlw	33	;'!'
  1189     060D  3400               	retlw	0
  1190     060E                     STR_34:
  1191     060E  3446               	retlw	70	;'F'
  1192     060F  3461               	retlw	97	;'a'
  1193     0610  3473               	retlw	115	;'s'
  1194     0611  3474               	retlw	116	;'t'
  1195     0612  3465               	retlw	101	;'e'
  1196     0613  346E               	retlw	110	;'n'
  1197     0614  3420               	retlw	32	;' '
  1198     0615  3462               	retlw	98	;'b'
  1199     0616  3465               	retlw	101	;'e'
  1200     0617  346C               	retlw	108	;'l'
  1201     0618  3474               	retlw	116	;'t'
  1202     0619  3420               	retlw	32	;' '
  1203     061A  3431               	retlw	49	;'1'
  1204     061B  3473               	retlw	115	;'s'
  1205     061C  3474               	retlw	116	;'t'
  1206     061D  3400               	retlw	0
  1207     061E                     STR_19:
  1208     061E  3452               	retlw	82	;'R'
  1209     061F  3443               	retlw	67	;'C'
  1210     0620  3420               	retlw	32	;' '
  1211     0621  3443               	retlw	67	;'C'
  1212     0622  3461               	retlw	97	;'a'
  1213     0623  3472               	retlw	114	;'r'
  1214     0624  3420               	retlw	32	;' '
  1215     0625  344F               	retlw	79	;'O'
  1216     0626  346E               	retlw	110	;'n'
  1217     0627  346C               	retlw	108	;'l'
  1218     0628  3469               	retlw	105	;'i'
  1219     0629  346E               	retlw	110	;'n'
  1220     062A  3465               	retlw	101	;'e'
  1221     062B  3400               	retlw	0
  1222     062C                     STR_20:
  1223     062C  3450               	retlw	80	;'P'
  1224     062D  3469               	retlw	105	;'i'
  1225     062E  3420               	retlw	32	;' '
  1226     062F  344C               	retlw	76	;'L'
  1227     0630  3469               	retlw	105	;'i'
  1228     0631  346E               	retlw	110	;'n'
  1229     0632  346B               	retlw	107	;'k'
  1230     0633  343A               	retlw	58	;':'
  1231     0634  3420               	retlw	32	;' '
  1232     0635  344F               	retlw	79	;'O'
  1233     0636  344B               	retlw	75	;'K'
  1234     0637  3400               	retlw	0
  1235     0638                     STR_21:
  1236     0638  3442               	retlw	66	;'B'
  1237     0639  344F               	retlw	79	;'O'
  1238     063A  344F               	retlw	79	;'O'
  1239     063B  3454               	retlw	84	;'T'
  1240     063C  343A               	retlw	58	;':'
  1241     063D  344F               	retlw	79	;'O'
  1242     063E  344B               	retlw	75	;'K'
  1243     063F  340A               	retlw	10
  1244     0640  3400               	retlw	0
  1245     0641                     STR_15:
  1246     0641  342C               	retlw	44	;','
  1247     0642  3453               	retlw	83	;'S'
  1248     0643  3454               	retlw	84	;'T'
  1249     0644  3441               	retlw	65	;'A'
  1250     0645  3454               	retlw	84	;'T'
  1251     0646  3445               	retlw	69	;'E'
  1252     0647  343A               	retlw	58	;':'
  1253     0648  3400               	retlw	0
  1254     0649                     STR_14:
  1255     0649  342C               	retlw	44	;','
  1256     064A  3452               	retlw	82	;'R'
  1257     064B  3449               	retlw	73	;'I'
  1258     064C  3447               	retlw	71	;'G'
  1259     064D  3448               	retlw	72	;'H'
  1260     064E  3454               	retlw	84	;'T'
  1261     064F  343A               	retlw	58	;':'
  1262     0650  3400               	retlw	0
  1263     0651                     STR_12:
  1264     0651  342C               	retlw	44	;','
  1265     0652  3446               	retlw	70	;'F'
  1266     0653  3452               	retlw	82	;'R'
  1267     0654  344F               	retlw	79	;'O'
  1268     0655  344E               	retlw	78	;'N'
  1269     0656  3454               	retlw	84	;'T'
  1270     0657  343A               	retlw	58	;':'
  1271     0658  3400               	retlw	0
  1272     0659                     STR_13:
  1273     0659  342C               	retlw	44	;','
  1274     065A  344C               	retlw	76	;'L'
  1275     065B  3445               	retlw	69	;'E'
  1276     065C  3446               	retlw	70	;'F'
  1277     065D  3454               	retlw	84	;'T'
  1278     065E  343A               	retlw	58	;':'
  1279     065F  3400               	retlw	0
  1280     0660                     STR_9:
  1281     0660  342C               	retlw	44	;','
  1282     0661  3442               	retlw	66	;'B'
  1283     0662  3445               	retlw	69	;'E'
  1284     0663  344C               	retlw	76	;'L'
  1285     0664  3454               	retlw	84	;'T'
  1286     0665  343A               	retlw	58	;':'
  1287     0666  3400               	retlw	0
  1288     0667                     STR_7:
  1289     0667  3443               	retlw	67	;'C'
  1290     0668  344C               	retlw	76	;'L'
  1291     0669  344F               	retlw	79	;'O'
  1292     066A  3453               	retlw	83	;'S'
  1293     066B  3445               	retlw	69	;'E'
  1294     066C  3444               	retlw	68	;'D'
  1295     066D  3400               	retlw	0
  1296     066E                     STR_6:
  1297     066E  3444               	retlw	68	;'D'
  1298     066F  344F               	retlw	79	;'O'
  1299     0670  344F               	retlw	79	;'O'
  1300     0671  3452               	retlw	82	;'R'
  1301     0672  343A               	retlw	58	;':'
  1302     0673  3400               	retlw	0
  1303     0674                     STR_17:
  1304     0674  342D               	retlw	45	;'-'
  1305     0675  342D               	retlw	45	;'-'
  1306     0676  342D               	retlw	45	;'-'
  1307     0677  3420               	retlw	32	;' '
  1308     0678  3400               	retlw	0
  1309     0679                     STR_8:
  1310     0679  344F               	retlw	79	;'O'
  1311     067A  3450               	retlw	80	;'P'
  1312     067B  3445               	retlw	69	;'E'
  1313     067C  344E               	retlw	78	;'N'
  1314     067D  3400               	retlw	0
  1315     067E                     STR_11:
  1316     067E  344F               	retlw	79	;'O'
  1317     067F  3446               	retlw	70	;'F'
  1318     0680  3446               	retlw	70	;'F'
  1319     0681  3400               	retlw	0
  1320     0682                     STR_5:
  1321     0682  3420               	retlw	32	;' '
  1322     0683  3442               	retlw	66	;'B'
  1323     0684  343A               	retlw	58	;':'
  1324     0685  3400               	retlw	0
  1325     0686                     STR_4:
  1326     0686  3420               	retlw	32	;' '
  1327     0687  3444               	retlw	68	;'D'
  1328     0688  343A               	retlw	58	;':'
  1329     0689  3400               	retlw	0
  1330     068A                     STR_2:
  1331     068A  3420               	retlw	32	;' '
  1332     068B  344C               	retlw	76	;'L'
  1333     068C  343A               	retlw	58	;':'
  1334     068D  3400               	retlw	0
  1335     068E                     STR_3:
  1336     068E  3420               	retlw	32	;' '
  1337     068F  3452               	retlw	82	;'R'
  1338     0690  343A               	retlw	58	;':'
  1339     0691  3400               	retlw	0
  1340     0692                     STR_16:
  1341     0692  340D               	retlw	13
  1342     0693  340A               	retlw	10
  1343     0694  3400               	retlw	0
  1344     0695                     STR_10:
  1345     0695  344F               	retlw	79	;'O'
  1346     0696  344E               	retlw	78	;'N'
  1347     0697  3400               	retlw	0
  1348     0698                     STR_1:
  1349     0698  3446               	retlw	70	;'F'
  1350     0699  343A               	retlw	58	;':'
  1351     069A  3400               	retlw	0
  1352     050E                     STR_18          equ	STR_37+14
  1353                           
  1354                           	psect	cinit
  1355     000F                     start_initialization:	
  1356                           ; #config settings
  1357                           
  1358     000F                     __initialization:
  1359                           
  1360                           ; Initialize objects allocated to BANK0
  1361     000F  120A  158A  23D9  120A  118A  	fcall	__pidataBANK0	;fetch initializer
  1362     0014  00C8               	movwf	__pdataBANK0& (0+127)
  1363     0015  120A  158A  23DA  120A  118A  	fcall	__pidataBANK0+1	;fetch initializer
  1364     001A  00C9               	movwf	(__pdataBANK0+1)& (0+127)
  1365     001B  120A  158A  23DB  120A  118A  	fcall	__pidataBANK0+2	;fetch initializer
  1366     0020  00CA               	movwf	(__pdataBANK0+2)& (0+127)
  1367     0021  120A  158A  23DC  120A  118A  	fcall	__pidataBANK0+3	;fetch initializer
  1368     0026  00CB               	movwf	(__pdataBANK0+3)& (0+127)
  1369                           
  1370                           ; Clear objects allocated to BANK0
  1371     0027  01CC               	clrf	__pbssBANK0& (0+127)
  1372                           
  1373                           ; Clear objects allocated to COMMON
  1374     0028  01FA               	clrf	__pbssCOMMON& (0+127)
  1375     0029  01FB               	clrf	(__pbssCOMMON+1)& (0+127)
  1376     002A                     end_of_initialization:	
  1377                           ;End of C runtime variable initialization code
  1378                           
  1379     002A                     __end_of__initialization:
  1380     002A  0183               	clrf	3
  1381     002B  120A  118A  282E   	ljmp	_main	;jump to C main() function
  1382                           
  1383                           	psect	bssCOMMON
  1384     007A                     __pbssCOMMON:
  1385     007A                     _g_suspended:
  1386     007A                     	ds	1
  1387     007B                     _g_state:
  1388     007B                     	ds	1
  1389                           
  1390                           	psect	bssBANK0
  1391     004C                     __pbssBANK0:
  1392     004C                     _g_ext_int_callback:
  1393     004C                     	ds	1
  1394                           
  1395                           	psect	dataBANK0
  1396     0048                     __pdataBANK0:
  1397     0048                     _g_pulse_ticks:
  1398     0048                     	ds	2
  1399     004A                     _eyes_open:
  1400     004A                     	ds	1
  1401     004B                     _lcd_backlight:
  1402     004B                     	ds	1
  1403                           
  1404                           	psect	cstackCOMMON
  1405     0070                     __pcstackCOMMON:
  1406     0070                     ?_UART_ClearErrors:
  1407     0070                     ?_UART_SendChar:	
  1408                           ; 1 bytes @ 0x0
  1409                           
  1410     0070                     ?_UART_DataAvailable:	
  1411                           ; 1 bytes @ 0x0
  1412                           
  1413     0070                     ?_UART_ReceiveChar:	
  1414                           ; 1 bytes @ 0x0
  1415                           
  1416     0070                     ?_ISR:	
  1417                           ; 1 bytes @ 0x0
  1418                           
  1419     0070                     ?_I2C_Master_Wait:	
  1420                           ; 1 bytes @ 0x0
  1421                           
  1422     0070                     ?_I2C_Master_Start:	
  1423                           ; 1 bytes @ 0x0
  1424                           
  1425     0070                     ?_I2C_Master_Stop:	
  1426                           ; 1 bytes @ 0x0
  1427                           
  1428     0070                     ?_I2C_Master_Write:	
  1429                           ; 1 bytes @ 0x0
  1430                           
  1431     0070                     ?_Motor_Init:	
  1432                           ; 1 bytes @ 0x0
  1433                           
  1434     0070                     ?_Motor_Stop:	
  1435                           ; 1 bytes @ 0x0
  1436                           
  1437     0070                     ?_Motor_Forward:	
  1438                           ; 1 bytes @ 0x0
  1439                           
  1440     0070                     ?_Motor_Reverse:	
  1441                           ; 1 bytes @ 0x0
  1442                           
  1443     0070                     ?_Motor_Turn_Left:	
  1444                           ; 1 bytes @ 0x0
  1445                           
  1446     0070                     ?_Motor_Turn_Right:	
  1447                           ; 1 bytes @ 0x0
  1448                           
  1449     0070                     ?_LCD_Init:	
  1450                           ; 1 bytes @ 0x0
  1451                           
  1452     0070                     ?_LCD_Clear:	
  1453                           ; 1 bytes @ 0x0
  1454                           
  1455     0070                     ?_LCD_WriteChar:	
  1456                           ; 1 bytes @ 0x0
  1457                           
  1458     0070                     ?_TMR1_Start@SR04$F834:	
  1459                           ; 1 bytes @ 0x0
  1460                           
  1461     0070                     ?_SR04_Init:	
  1462                           ; 1 bytes @ 0x0
  1463                           
  1464     0070                     ?_main:	
  1465                           ; 1 bytes @ 0x0
  1466                           
  1467     0070                     ??_ISR:	
  1468                           ; 1 bytes @ 0x0
  1469                           
  1470                           
  1471                           ; 1 bytes @ 0x0
  1472     0070                     	ds	2
  1473     0072                     ?_TMR1_Stop@SR04$F835:
  1474     0072                     ?___lwdiv:	
  1475                           ; 2 bytes @ 0x2
  1476                           
  1477     0072                     ?___lwmod:	
  1478                           ; 2 bytes @ 0x2
  1479                           
  1480     0072                     ?___lldiv:	
  1481                           ; 2 bytes @ 0x2
  1482                           
  1483     0072                     UART_ClearErrors@dummy:	
  1484                           ; 4 bytes @ 0x2
  1485                           
  1486     0072                     UART_SendChar@data:	
  1487                           ; 1 bytes @ 0x2
  1488                           
  1489     0072                     I2C_Master_Write@data:	
  1490                           ; 1 bytes @ 0x2
  1491                           
  1492     0072                     ___lwdiv@divisor:	
  1493                           ; 1 bytes @ 0x2
  1494                           
  1495     0072                     ___lwmod@divisor:	
  1496                           ; 2 bytes @ 0x2
  1497                           
  1498     0072                     ___lldiv@divisor:	
  1499                           ; 2 bytes @ 0x2
  1500                           
  1501     0072                     ??_UART_ClearErrors:	
  1502                           ; 4 bytes @ 0x2
  1503                           
  1504     0072                     ??_UART_SendChar:	
  1505                           ; 1 bytes @ 0x2
  1506                           
  1507     0072                     ??_I2C_Master_Wait:	
  1508                           ; 1 bytes @ 0x2
  1509                           
  1510     0072                     ??_I2C_Master_Start:	
  1511                           ; 1 bytes @ 0x2
  1512                           
  1513     0072                     ??_I2C_Master_Stop:	
  1514                           ; 1 bytes @ 0x2
  1515                           
  1516     0072                     ??_I2C_Master_Write:	
  1517                           ; 1 bytes @ 0x2
  1518                           
  1519     0072                     ??_Motor_Init:	
  1520                           ; 1 bytes @ 0x2
  1521                           
  1522     0072                     ??_Motor_Stop:	
  1523                           ; 1 bytes @ 0x2
  1524                           
  1525     0072                     ??_Motor_Forward:	
  1526                           ; 1 bytes @ 0x2
  1527                           
  1528     0072                     ??_Motor_Reverse:	
  1529                           ; 1 bytes @ 0x2
  1530                           
  1531     0072                     ??_Motor_Turn_Left:	
  1532                           ; 1 bytes @ 0x2
  1533                           
  1534     0072                     ??_Motor_Turn_Right:	
  1535                           ; 1 bytes @ 0x2
  1536                           
  1537     0072                     ??_TMR1_Start@SR04$F834:	
  1538                           ; 1 bytes @ 0x2
  1539                           
  1540     0072                     ??_SR04_Init:	
  1541                           ; 1 bytes @ 0x2
  1542                           
  1543                           
  1544                           ; 1 bytes @ 0x2
  1545     0072                     	ds	1
  1546     0073                     ?_UART_Init:
  1547     0073                     ?_UART_SendString:	
  1548                           ; 1 bytes @ 0x3
  1549                           
  1550     0073                     ?_LCD_Send_Nibble:	
  1551                           ; 1 bytes @ 0x3
  1552                           
  1553     0073                     LCD_Send_Nibble@rs:	
  1554                           ; 1 bytes @ 0x3
  1555                           
  1556     0073                     UART_SendString@str:	
  1557                           ; 1 bytes @ 0x3
  1558                           
  1559     0073                     UART_Init@baud_rate:	
  1560                           ; 2 bytes @ 0x3
  1561                           
  1562     0073                     ??_UART_DataAvailable:	
  1563                           ; 4 bytes @ 0x3
  1564                           
  1565     0073                     ??_UART_ReceiveChar:	
  1566                           ; 1 bytes @ 0x3
  1567                           
  1568                           
  1569                           ; 1 bytes @ 0x3
  1570     0073                     	ds	1
  1571     0074                     ___lwdiv@dividend:
  1572     0074                     ___lwmod@dividend:	
  1573                           ; 2 bytes @ 0x4
  1574                           
  1575     0074                     ??_LCD_Send_Nibble:	
  1576                           ; 2 bytes @ 0x4
  1577                           
  1578     0074                     ??_TMR1_Stop@SR04$F835:	
  1579                           ; 1 bytes @ 0x4
  1580                           
  1581                           
  1582                           ; 1 bytes @ 0x4
  1583     0074                     	ds	1
  1584     0075                     LCD_Send_Nibble@byte_val:
  1585     0075                     ??_UART_SendString:	
  1586                           ; 1 bytes @ 0x5
  1587                           
  1588                           
  1589                           ; 1 bytes @ 0x5
  1590     0075                     	ds	1
  1591     0076                     LCD_Send_Nibble@nibble:
  1592     0076                     ___lwmod@counter:	
  1593                           ; 1 bytes @ 0x6
  1594                           
  1595     0076                     ___lwdiv@quotient:	
  1596                           ; 1 bytes @ 0x6
  1597                           
  1598     0076                     ___lldiv@dividend:	
  1599                           ; 2 bytes @ 0x6
  1600                           
  1601     0076                     ??___lwdiv:	
  1602                           ; 4 bytes @ 0x6
  1603                           
  1604     0076                     ??___lwmod:	
  1605                           ; 1 bytes @ 0x6
  1606                           
  1607                           
  1608                           ; 1 bytes @ 0x6
  1609     0076                     	ds	1
  1610     0077                     ?_LCD_Send_Byte:
  1611     0077                     UART_Init@dummy:	
  1612                           ; 1 bytes @ 0x7
  1613                           
  1614     0077                     LCD_Send_Byte@rs:	
  1615                           ; 1 bytes @ 0x7
  1616                           
  1617     0077                     ??_UART_Init:	
  1618                           ; 1 bytes @ 0x7
  1619                           
  1620                           
  1621                           ; 1 bytes @ 0x7
  1622     0077                     	ds	1
  1623     0078                     ___lwdiv@counter:
  1624     0078                     ??_LCD_Send_Byte:	
  1625                           ; 1 bytes @ 0x8
  1626                           
  1627                           
  1628                           ; 1 bytes @ 0x8
  1629     0078                     	ds	1
  1630     0079                     ??_UART_SendUInt:
  1631     0079                     ??_UART_SendLog:	
  1632                           ; 1 bytes @ 0x9
  1633                           
  1634                           
  1635                           ; 1 bytes @ 0x9
  1636     0079                     	ds	1
  1637     007A                     ??_LCD_Clear:
  1638     007A                     ??_LCD_WriteChar:	
  1639                           ; 1 bytes @ 0xA
  1640                           
  1641     007A                     ??_LCD_WriteString:	
  1642                           ; 1 bytes @ 0xA
  1643                           
  1644     007A                     ??_LCD_WriteNumber:	
  1645                           ; 1 bytes @ 0xA
  1646                           
  1647     007A                     ??_Display_Distance:	
  1648                           ; 1 bytes @ 0xA
  1649                           
  1650                           
  1651                           	psect	cstackBANK0
  1652     0020                     __pcstackBANK0:	
  1653                           ; 1 bytes @ 0xA
  1654                           
  1655     0020                     ?_UART_SendUInt:
  1656     0020                     ?_SR04_GetDistance:	
  1657                           ; 1 bytes @ 0x0
  1658                           
  1659     0020                     LCD_Send_Byte@data:	
  1660                           ; 2 bytes @ 0x0
  1661                           
  1662     0020                     UART_SendUInt@num:	
  1663                           ; 1 bytes @ 0x0
  1664                           
  1665     0020                     ??___lldiv:	
  1666                           ; 2 bytes @ 0x0
  1667                           
  1668                           
  1669                           ; 1 bytes @ 0x0
  1670     0020                     	ds	1
  1671     0021                     ?_LCD_SetCursor:
  1672     0021                     ?_LCD_WriteString:	
  1673                           ; 1 bytes @ 0x1
  1674                           
  1675     0021                     LCD_SetCursor@col:	
  1676                           ; 1 bytes @ 0x1
  1677                           
  1678     0021                     LCD_WriteChar@c:	
  1679                           ; 1 bytes @ 0x1
  1680                           
  1681     0021                     LCD_WriteString@str:	
  1682                           ; 1 bytes @ 0x1
  1683                           
  1684     0021                     ___lldiv@quotient:	
  1685                           ; 2 bytes @ 0x1
  1686                           
  1687                           
  1688                           ; 4 bytes @ 0x1
  1689     0021                     	ds	1
  1690     0022                     ?_LCD_WriteNumber:
  1691     0022                     LCD_WriteNumber@num:	
  1692                           ; 1 bytes @ 0x2
  1693                           
  1694     0022                     UART_SendUInt@buf:	
  1695                           ; 2 bytes @ 0x2
  1696                           
  1697     0022                     ??_LCD_SetCursor:	
  1698                           ; 6 bytes @ 0x2
  1699                           
  1700     0022                     ??_SR04_GetDistance:	
  1701                           ; 1 bytes @ 0x2
  1702                           
  1703                           
  1704                           ; 1 bytes @ 0x2
  1705     0022                     	ds	2
  1706     0024                     LCD_SetCursor@row:
  1707     0024                     LCD_WriteNumber@buf:	
  1708                           ; 1 bytes @ 0x4
  1709                           
  1710                           
  1711                           ; 6 bytes @ 0x4
  1712     0024                     	ds	1
  1713     0025                     LCD_SetCursor@addr:
  1714     0025                     ___lldiv@counter:	
  1715                           ; 1 bytes @ 0x5
  1716                           
  1717     0025                     SR04_GetDistance@ticks:	
  1718                           ; 1 bytes @ 0x5
  1719                           
  1720                           
  1721                           ; 2 bytes @ 0x5
  1722     0025                     	ds	1
  1723     0026                     ?_I2C_Master_Init:
  1724     0026                     _LCD_SetCursor$691:	
  1725                           ; 1 bytes @ 0x6
  1726                           
  1727     0026                     I2C_Master_Init@baud_rate:	
  1728                           ; 2 bytes @ 0x6
  1729                           
  1730                           
  1731                           ; 4 bytes @ 0x6
  1732     0026                     	ds	1
  1733     0027                     SR04_GetDistance@timeout:
  1734                           
  1735                           ; 2 bytes @ 0x7
  1736     0027                     	ds	1
  1737     0028                     UART_SendUInt@i:
  1738                           
  1739                           ; 1 bytes @ 0x8
  1740     0028                     	ds	1
  1741     0029                     ?_UART_SendLog:
  1742     0029                     UART_SendLog@belt_state:	
  1743                           ; 1 bytes @ 0x9
  1744                           
  1745     0029                     SR04_GetDistance@sensor_id:	
  1746                           ; 1 bytes @ 0x9
  1747                           
  1748                           
  1749                           ; 1 bytes @ 0x9
  1750     0029                     	ds	1
  1751     002A                     LCD_WriteNumber@i:
  1752     002A                     UART_SendLog@f_dist:	
  1753                           ; 1 bytes @ 0xA
  1754                           
  1755     002A                     ??_I2C_Master_Init:	
  1756                           ; 2 bytes @ 0xA
  1757                           
  1758                           
  1759                           ; 1 bytes @ 0xA
  1760     002A                     	ds	1
  1761     002B                     ?_Display_Distance:
  1762     002B                     Display_Distance@dist:	
  1763                           ; 1 bytes @ 0xB
  1764                           
  1765                           
  1766                           ; 2 bytes @ 0xB
  1767     002B                     	ds	1
  1768     002C                     UART_SendLog@l_dist:
  1769                           
  1770                           ; 2 bytes @ 0xC
  1771     002C                     	ds	2
  1772     002E                     UART_SendLog@r_dist:
  1773     002E                     ??_LCD_Init:	
  1774                           ; 2 bytes @ 0xE
  1775                           
  1776                           
  1777                           ; 1 bytes @ 0xE
  1778     002E                     	ds	2
  1779     0030                     UART_SendLog@door_state:
  1780                           
  1781                           ; 1 bytes @ 0x10
  1782     0030                     	ds	1
  1783     0031                     _UART_SendLog$212:
  1784                           
  1785                           ; 2 bytes @ 0x11
  1786     0031                     	ds	2
  1787     0033                     _UART_SendLog$214:
  1788                           
  1789                           ; 2 bytes @ 0x13
  1790     0033                     	ds	2
  1791     0035                     ??_main:
  1792                           
  1793                           ; 1 bytes @ 0x15
  1794     0035                     	ds	3
  1795     0038                     main@previous_state:
  1796                           
  1797                           ; 1 bytes @ 0x18
  1798     0038                     	ds	1
  1799     0039                     main@old_f:
  1800                           
  1801                           ; 2 bytes @ 0x19
  1802     0039                     	ds	2
  1803     003B                     main@old_l:
  1804                           
  1805                           ; 2 bytes @ 0x1B
  1806     003B                     	ds	2
  1807     003D                     main@old_r:
  1808                           
  1809                           ; 2 bytes @ 0x1D
  1810     003D                     	ds	2
  1811     003F                     main@drive_mode:
  1812                           
  1813                           ; 1 bytes @ 0x1F
  1814     003F                     	ds	1
  1815     0040                     main@cmd:
  1816                           
  1817                           ; 1 bytes @ 0x20
  1818     0040                     	ds	1
  1819     0041                     main@f:
  1820                           
  1821                           ; 2 bytes @ 0x21
  1822     0041                     	ds	2
  1823     0043                     main@l:
  1824                           
  1825                           ; 2 bytes @ 0x23
  1826     0043                     	ds	2
  1827     0045                     main@r:
  1828                           
  1829                           ; 2 bytes @ 0x25
  1830     0045                     	ds	2
  1831     0047                     main@current_state:
  1832                           
  1833                           ; 1 bytes @ 0x27
  1834     0047                     	ds	1
  1835                           
  1836                           	psect	maintext
  1837     002E                     __pmaintext:	
  1838 ;;
  1839 ;;Main: autosize = 0, tempsize = 3, incstack = 0, save=0
  1840 ;;
  1841 ;; *************** function _main *****************
  1842 ;; Defined at:
  1843 ;;		line 752 in file "../APP/main.c"
  1844 ;; Parameters:    Size  Location     Type
  1845 ;;		None
  1846 ;; Auto vars:     Size  Location     Type
  1847 ;;  cmd             1   32[BANK0 ] unsigned char 
  1848 ;;  r               2   37[BANK0 ] unsigned short 
  1849 ;;  l               2   35[BANK0 ] unsigned short 
  1850 ;;  f               2   33[BANK0 ] unsigned short 
  1851 ;;  old_r           2   29[BANK0 ] unsigned short 
  1852 ;;  old_l           2   27[BANK0 ] unsigned short 
  1853 ;;  old_f           2   25[BANK0 ] unsigned short 
  1854 ;;  current_stat    1   39[BANK0 ] enum E1052
  1855 ;;  drive_mode      1   31[BANK0 ] enum E1058
  1856 ;;  previous_sta    1   24[BANK0 ] enum E1052
  1857 ;; Return value:  Size  Location     Type
  1858 ;;                  1    wreg      void 
  1859 ;; Registers used:
  1860 ;;		wreg, fsr0l, fsr0h, status,2, status,0, pclath, btemp1, cstack
  1861 ;; Tracked objects:
  1862 ;;		On entry : B00/0
  1863 ;;		On exit  : 0/0
  1864 ;;		Unchanged: 0/0
  1865 ;; Data sizes:     COMMON   BANK0   BANK1   BANK3   BANK2
  1866 ;;      Params:         0       0       0       0       0
  1867 ;;      Locals:         0      16       0       0       0
  1868 ;;      Temps:          0       3       0       0       0
  1869 ;;      Totals:         0      19       0       0       0
  1870 ;;Total ram usage:       19 bytes
  1871 ;; Hardware stack levels required when called: 8
  1872 ;; This function calls:
  1873 ;;		_Display_Distance
  1874 ;;		_LCD_Clear
  1875 ;;		_LCD_Init
  1876 ;;		_LCD_SetCursor
  1877 ;;		_LCD_WriteString
  1878 ;;		_Motor_Forward
  1879 ;;		_Motor_Init
  1880 ;;		_Motor_Reverse
  1881 ;;		_Motor_Stop
  1882 ;;		_Motor_Turn_Left
  1883 ;;		_Motor_Turn_Right
  1884 ;;		_SR04_GetDistance
  1885 ;;		_SR04_Init
  1886 ;;		_UART_DataAvailable
  1887 ;;		_UART_Init
  1888 ;;		_UART_ReceiveChar
  1889 ;;		_UART_SendLog
  1890 ;;		_UART_SendString
  1891 ;; This function is called by:
  1892 ;;		Startup code after reset
  1893 ;; This function uses a non-reentrant model
  1894 ;;
  1895                           
  1896     002E                     _main:	
  1897                           ;psect for function _main
  1898                           
  1899     002E                     l3331:	
  1900                           ;incstack = 0
  1901                           ; Regs used in _main: [wreg-fsr0h+status,2+status,0+pclath+btemp1+cstack]
  1902                           
  1903     002E  3007               	movlw	7
  1904     002F  1683               	bsf	3,5	;RP0=1, select bank1
  1905     0030  1303               	bcf	3,6	;RP1=0, select bank1
  1906     0031  009F               	movwf	31	;volatile
  1907     0032  1405               	bsf	5,0	;volatile
  1908     0033  1485               	bsf	5,1	;volatile
  1909     0034                     l3333:
  1910     0034  120A  158A  26F9  120A  118A  	fcall	_LCD_Init
  1911     0039                     l3335:
  1912     0039  3002               	movlw	2
  1913     003A  1283               	bcf	3,5	;RP0=0, select bank0
  1914     003B  1303               	bcf	3,6	;RP1=0, select bank0
  1915     003C  00B7               	movwf	??_main+2
  1916     003D  3045               	movlw	69
  1917     003E  00B6               	movwf	??_main+1
  1918     003F  30A9               	movlw	169
  1919     0040  00B5               	movwf	??_main
  1920     0041                     u3317:
  1921     0041  0BB5               	decfsz	??_main,f
  1922     0042  2841               	goto	u3317
  1923     0043  0BB6               	decfsz	??_main+1,f
  1924     0044  2841               	goto	u3317
  1925     0045  0BB7               	decfsz	??_main+2,f
  1926     0046  2841               	goto	u3317
  1927     0047  120A  158A  24A8  120A  118A  	fcall	_SR04_Init
  1928     004C                     l3337:
  1929     004C  120A  158A  2425  120A  118A  	fcall	_Motor_Init
  1930     0051                     l3339:
  1931     0051  120A  158A  23EB  120A  118A  	fcall	_Motor_Stop
  1932     0056                     l3341:
  1933     0056  3006               	movlw	6
  1934     0057  1283               	bcf	3,5	;RP0=0, select bank0
  1935     0058  1303               	bcf	3,6	;RP1=0, select bank0
  1936     0059  00B7               	movwf	??_main+2
  1937     005A  3013               	movlw	19
  1938     005B  00B6               	movwf	??_main+1
  1939     005C  30AD               	movlw	173
  1940     005D  00B5               	movwf	??_main
  1941     005E                     u3327:
  1942     005E  0BB5               	decfsz	??_main,f
  1943     005F  285E               	goto	u3327
  1944     0060  0BB6               	decfsz	??_main+1,f
  1945     0061  285E               	goto	u3327
  1946     0062  0BB7               	decfsz	??_main+2,f
  1947     0063  285E               	goto	u3327
  1948     0064                     l3343:
  1949     0064  3000               	movlw	0
  1950     0065  00F6               	movwf	UART_Init@baud_rate+3
  1951     0066  3000               	movlw	0
  1952     0067  00F5               	movwf	UART_Init@baud_rate+2
  1953     0068  3025               	movlw	37
  1954     0069  00F4               	movwf	UART_Init@baud_rate+1
  1955     006A  3080               	movlw	128
  1956     006B  00F3               	movwf	UART_Init@baud_rate
  1957     006C  120A  158A  248D  120A  118A  	fcall	_UART_Init
  1958     0071  3003               	movlw	3
  1959     0072  1283               	bcf	3,5	;RP0=0, select bank0
  1960     0073  1303               	bcf	3,6	;RP1=0, select bank0
  1961     0074  00B7               	movwf	??_main+2
  1962     0075  308A               	movlw	138
  1963     0076  00B6               	movwf	??_main+1
  1964     0077  3055               	movlw	85
  1965     0078  00B5               	movwf	??_main
  1966     0079                     u3337:
  1967     0079  0BB5               	decfsz	??_main,f
  1968     007A  2879               	goto	u3337
  1969     007B  0BB6               	decfsz	??_main+1,f
  1970     007C  2879               	goto	u3337
  1971     007D  0BB7               	decfsz	??_main+2,f
  1972     007E  2879               	goto	u3337
  1973     007F                     l3345:
  1974     007F  120A  158A  2400  120A  118A  	fcall	_LCD_Clear
  1975     0084                     l3347:
  1976     0084  1283               	bcf	3,5	;RP0=0, select bank0
  1977     0085  1303               	bcf	3,6	;RP1=0, select bank0
  1978     0086  01A1               	clrf	LCD_SetCursor@col
  1979     0087  3000               	movlw	0
  1980     0088  120A  158A  24C6  120A  118A  	fcall	_LCD_SetCursor
  1981     008D                     l3349:
  1982     008D  301E               	movlw	low (STR_19| (0+32768))
  1983     008E  1283               	bcf	3,5	;RP0=0, select bank0
  1984     008F  1303               	bcf	3,6	;RP1=0, select bank0
  1985     0090  00A1               	movwf	LCD_WriteString@str
  1986     0091  3086               	movlw	high (STR_19| (0+32768))
  1987     0092  00A2               	movwf	LCD_WriteString@str+1
  1988     0093  120A  158A  250E  120A  118A  	fcall	_LCD_WriteString
  1989     0098                     l3351:
  1990     0098  1283               	bcf	3,5	;RP0=0, select bank0
  1991     0099  1303               	bcf	3,6	;RP1=0, select bank0
  1992     009A  01A1               	clrf	LCD_SetCursor@col
  1993     009B  3001               	movlw	1
  1994     009C  120A  158A  24C6  120A  118A  	fcall	_LCD_SetCursor
  1995     00A1                     l3353:
  1996     00A1  302C               	movlw	low (STR_20| (0+32768))
  1997     00A2  1283               	bcf	3,5	;RP0=0, select bank0
  1998     00A3  1303               	bcf	3,6	;RP1=0, select bank0
  1999     00A4  00A1               	movwf	LCD_WriteString@str
  2000     00A5  3086               	movlw	high (STR_20| (0+32768))
  2001     00A6  00A2               	movwf	LCD_WriteString@str+1
  2002     00A7  120A  158A  250E  120A  118A  	fcall	_LCD_WriteString
  2003     00AC                     l3355:
  2004     00AC  3027               	movlw	39
  2005     00AD  1283               	bcf	3,5	;RP0=0, select bank0
  2006     00AE  1303               	bcf	3,6	;RP1=0, select bank0
  2007     00AF  00B7               	movwf	??_main+2
  2008     00B0  300D               	movlw	13
  2009     00B1  00B6               	movwf	??_main+1
  2010     00B2  3025               	movlw	37
  2011     00B3  00B5               	movwf	??_main
  2012     00B4                     u3347:
  2013     00B4  0BB5               	decfsz	??_main,f
  2014     00B5  28B4               	goto	u3347
  2015     00B6  0BB6               	decfsz	??_main+1,f
  2016     00B7  28B4               	goto	u3347
  2017     00B8  0BB7               	decfsz	??_main+2,f
  2018     00B9  28B4               	goto	u3347
  2019     00BA  28BB               	nop2
  2020     00BB                     l3357:
  2021     00BB  1283               	bcf	3,5	;RP0=0, select bank0
  2022     00BC  1303               	bcf	3,6	;RP1=0, select bank0
  2023     00BD  01C1               	clrf	main@f
  2024     00BE  01C2               	clrf	main@f+1
  2025     00BF                     l3359:
  2026     00BF  01C3               	clrf	main@l
  2027     00C0  01C4               	clrf	main@l+1
  2028     00C1                     l3361:
  2029     00C1  01C5               	clrf	main@r
  2030     00C2  01C6               	clrf	main@r+1
  2031     00C3                     l3363:
  2032     00C3  30E7               	movlw	231
  2033     00C4  00B9               	movwf	main@old_f
  2034     00C5  3003               	movlw	3
  2035     00C6  00BA               	movwf	main@old_f+1
  2036     00C7                     l3365:
  2037     00C7  30E7               	movlw	231
  2038     00C8  00BB               	movwf	main@old_l
  2039     00C9  3003               	movlw	3
  2040     00CA  00BC               	movwf	main@old_l+1
  2041     00CB                     l3367:
  2042     00CB  30E7               	movlw	231
  2043     00CC  00BD               	movwf	main@old_r
  2044     00CD  3003               	movlw	3
  2045     00CE  00BE               	movwf	main@old_r+1
  2046     00CF                     l3369:
  2047     00CF  01C7               	clrf	main@current_state
  2048     00D0                     l3371:
  2049     00D0  3063               	movlw	99
  2050     00D1  00B8               	movwf	main@previous_state
  2051     00D2                     l3373:
  2052     00D2  01BF               	clrf	main@drive_mode
  2053     00D3                     l3375:
  2054     00D3  3038               	movlw	low (STR_21| (0+32768))
  2055     00D4  00F3               	movwf	UART_SendString@str
  2056     00D5  3086               	movlw	high (STR_21| (0+32768))
  2057     00D6  00F4               	movwf	UART_SendString@str+1
  2058     00D7  120A  158A  24E8  120A  118A  	fcall	_UART_SendString
  2059     00DC                     l3377:
  2060     00DC  120A  158A  243C  120A  118A  	fcall	_UART_DataAvailable
  2061     00E1  3A00               	xorlw	0
  2062     00E2  1903               	skipnz
  2063     00E3  28E5               	goto	u3071
  2064     00E4  28E6               	goto	u3070
  2065     00E5                     u3071:
  2066     00E5  2A1B               	goto	l561
  2067     00E6                     u3070:
  2068     00E6                     l3379:
  2069     00E6  120A  158A  2461  120A  118A  	fcall	_UART_ReceiveChar
  2070     00EB  1283               	bcf	3,5	;RP0=0, select bank0
  2071     00EC  1303               	bcf	3,6	;RP1=0, select bank0
  2072     00ED  00C0               	movwf	main@cmd
  2073     00EE                     l3381:
  2074     00EE  3045               	movlw	69
  2075     00EF  0640               	xorwf	main@cmd,w
  2076     00F0  1D03               	btfss	3,2
  2077     00F1  28F3               	goto	u3081
  2078     00F2  28F4               	goto	u3080
  2079     00F3                     u3081:
  2080     00F3  28F7               	goto	l3385
  2081     00F4                     u3080:
  2082     00F4                     l3383:
  2083     00F4  3001               	movlw	1
  2084     00F5  00CA               	movwf	_eyes_open
  2085     00F6  2A1B               	goto	l561
  2086     00F7                     l3385:
  2087     00F7  3043               	movlw	67
  2088     00F8  0640               	xorwf	main@cmd,w
  2089     00F9  1D03               	btfss	3,2
  2090     00FA  28FC               	goto	u3091
  2091     00FB  28FD               	goto	u3090
  2092     00FC                     u3091:
  2093     00FC  28FF               	goto	l3389
  2094     00FD                     u3090:
  2095     00FD                     l3387:
  2096     00FD  01CA               	clrf	_eyes_open
  2097     00FE  2A1B               	goto	l561
  2098     00FF                     l3389:
  2099     00FF  304D               	movlw	77
  2100     0100  0640               	xorwf	main@cmd,w
  2101     0101  1D03               	btfss	3,2
  2102     0102  2904               	goto	u3101
  2103     0103  2905               	goto	u3100
  2104     0104                     u3101:
  2105     0104  293A               	goto	l3405
  2106     0105                     u3100:
  2107     0105                     l3391:
  2108     0105  3001               	movlw	1
  2109     0106  00BF               	movwf	main@drive_mode
  2110     0107                     l3393:
  2111     0107  120A  158A  23EB  120A  118A  	fcall	_Motor_Stop
  2112     010C                     l3395:
  2113     010C  120A  158A  2400  120A  118A  	fcall	_LCD_Clear
  2114     0111                     l3397:
  2115     0111  1283               	bcf	3,5	;RP0=0, select bank0
  2116     0112  1303               	bcf	3,6	;RP1=0, select bank0
  2117     0113  01A1               	clrf	LCD_SetCursor@col
  2118     0114  3000               	movlw	0
  2119     0115  120A  158A  24C6  120A  118A  	fcall	_LCD_SetCursor
  2120     011A                     l3399:
  2121     011A  3099               	movlw	low (STR_22| (0+32768))
  2122     011B  1283               	bcf	3,5	;RP0=0, select bank0
  2123     011C  1303               	bcf	3,6	;RP1=0, select bank0
  2124     011D  00A1               	movwf	LCD_WriteString@str
  2125     011E  3085               	movlw	high (STR_22| (0+32768))
  2126     011F  00A2               	movwf	LCD_WriteString@str+1
  2127     0120  120A  158A  250E  120A  118A  	fcall	_LCD_WriteString
  2128     0125                     l3401:
  2129     0125  1283               	bcf	3,5	;RP0=0, select bank0
  2130     0126  1303               	bcf	3,6	;RP1=0, select bank0
  2131     0127  01A1               	clrf	LCD_SetCursor@col
  2132     0128  3001               	movlw	1
  2133     0129  120A  158A  24C6  120A  118A  	fcall	_LCD_SetCursor
  2134     012E                     l3403:
  2135     012E  3055               	movlw	low (STR_23| (0+32768))
  2136     012F  1283               	bcf	3,5	;RP0=0, select bank0
  2137     0130  1303               	bcf	3,6	;RP1=0, select bank0
  2138     0131  00A1               	movwf	LCD_WriteString@str
  2139     0132  3085               	movlw	high (STR_23| (0+32768))
  2140     0133  00A2               	movwf	LCD_WriteString@str+1
  2141     0134  120A  158A  250E  120A  118A  	fcall	_LCD_WriteString
  2142     0139  2A1B               	goto	l561
  2143     013A                     l3405:
  2144     013A  3041               	movlw	65
  2145     013B  0640               	xorwf	main@cmd,w
  2146     013C  1D03               	btfss	3,2
  2147     013D  293F               	goto	u3111
  2148     013E  2940               	goto	u3110
  2149     013F                     u3111:
  2150     013F  2982               	goto	l3427
  2151     0140                     u3110:
  2152     0140                     l3407:
  2153     0140  01BF               	clrf	main@drive_mode
  2154     0141                     l3409:
  2155     0141  120A  158A  23EB  120A  118A  	fcall	_Motor_Stop
  2156     0146                     l3411:
  2157     0146  120A  158A  2400  120A  118A  	fcall	_LCD_Clear
  2158     014B                     l3413:
  2159     014B  1283               	bcf	3,5	;RP0=0, select bank0
  2160     014C  1303               	bcf	3,6	;RP1=0, select bank0
  2161     014D  01A1               	clrf	LCD_SetCursor@col
  2162     014E  3000               	movlw	0
  2163     014F  120A  158A  24C6  120A  118A  	fcall	_LCD_SetCursor
  2164     0154                     l3415:
  2165     0154  3033               	movlw	low (STR_24| (0+32768))
  2166     0155  1283               	bcf	3,5	;RP0=0, select bank0
  2167     0156  1303               	bcf	3,6	;RP1=0, select bank0
  2168     0157  00A1               	movwf	LCD_WriteString@str
  2169     0158  3085               	movlw	high (STR_24| (0+32768))
  2170     0159  00A2               	movwf	LCD_WriteString@str+1
  2171     015A  120A  158A  250E  120A  118A  	fcall	_LCD_WriteString
  2172     015F                     l3417:
  2173     015F  1283               	bcf	3,5	;RP0=0, select bank0
  2174     0160  1303               	bcf	3,6	;RP1=0, select bank0
  2175     0161  01A1               	clrf	LCD_SetCursor@col
  2176     0162  3001               	movlw	1
  2177     0163  120A  158A  24C6  120A  118A  	fcall	_LCD_SetCursor
  2178     0168                     l3419:
  2179     0168  30AA               	movlw	low (STR_25| (0+32768))
  2180     0169  1283               	bcf	3,5	;RP0=0, select bank0
  2181     016A  1303               	bcf	3,6	;RP1=0, select bank0
  2182     016B  00A1               	movwf	LCD_WriteString@str
  2183     016C  3085               	movlw	high (STR_25| (0+32768))
  2184     016D  00A2               	movwf	LCD_WriteString@str+1
  2185     016E  120A  158A  250E  120A  118A  	fcall	_LCD_WriteString
  2186     0173                     l3421:
  2187     0173  30E7               	movlw	231
  2188     0174  1283               	bcf	3,5	;RP0=0, select bank0
  2189     0175  1303               	bcf	3,6	;RP1=0, select bank0
  2190     0176  00B9               	movwf	main@old_f
  2191     0177  3003               	movlw	3
  2192     0178  00BA               	movwf	main@old_f+1
  2193     0179                     l3423:
  2194     0179  30E7               	movlw	231
  2195     017A  00BB               	movwf	main@old_l
  2196     017B  3003               	movlw	3
  2197     017C  00BC               	movwf	main@old_l+1
  2198     017D                     l3425:
  2199     017D  30E7               	movlw	231
  2200     017E  00BD               	movwf	main@old_r
  2201     017F  3003               	movlw	3
  2202     0180  00BE               	movwf	main@old_r+1
  2203     0181  2A1B               	goto	l561
  2204     0182                     l3427:
  2205     0182  033F               	decf	main@drive_mode,w
  2206     0183  1D03               	btfss	3,2
  2207     0184  2986               	goto	u3121
  2208     0185  2987               	goto	u3120
  2209     0186                     u3121:
  2210     0186  2A1B               	goto	l561
  2211     0187                     u3120:
  2212     0187  2A0A               	goto	l3463
  2213     0188                     l3431:
  2214     0188  120A  158A  23DD  120A  118A  	fcall	_Motor_Forward
  2215     018D                     l3433:
  2216     018D  1283               	bcf	3,5	;RP0=0, select bank0
  2217     018E  1303               	bcf	3,6	;RP1=0, select bank0
  2218     018F  01A1               	clrf	LCD_SetCursor@col
  2219     0190  3000               	movlw	0
  2220     0191  120A  158A  24C6  120A  118A  	fcall	_LCD_SetCursor
  2221     0196                     l3435:
  2222     0196  3077               	movlw	low (STR_26| (0+32768))
  2223     0197  1283               	bcf	3,5	;RP0=0, select bank0
  2224     0198  1303               	bcf	3,6	;RP1=0, select bank0
  2225     0199  00A1               	movwf	LCD_WriteString@str
  2226     019A  3085               	movlw	high (STR_26| (0+32768))
  2227     019B  00A2               	movwf	LCD_WriteString@str+1
  2228     019C  120A  158A  250E  120A  118A  	fcall	_LCD_WriteString
  2229     01A1  2A1B               	goto	l561
  2230     01A2                     l3437:
  2231     01A2  120A  158A  23E4  120A  118A  	fcall	_Motor_Reverse
  2232     01A7                     l3439:
  2233     01A7  1283               	bcf	3,5	;RP0=0, select bank0
  2234     01A8  1303               	bcf	3,6	;RP1=0, select bank0
  2235     01A9  01A1               	clrf	LCD_SetCursor@col
  2236     01AA  3000               	movlw	0
  2237     01AB  120A  158A  24C6  120A  118A  	fcall	_LCD_SetCursor
  2238     01B0                     l3441:
  2239     01B0  3088               	movlw	low (STR_27| (0+32768))
  2240     01B1  1283               	bcf	3,5	;RP0=0, select bank0
  2241     01B2  1303               	bcf	3,6	;RP1=0, select bank0
  2242     01B3  00A1               	movwf	LCD_WriteString@str
  2243     01B4  3085               	movlw	high (STR_27| (0+32768))
  2244     01B5  00A2               	movwf	LCD_WriteString@str+1
  2245     01B6  120A  158A  250E  120A  118A  	fcall	_LCD_WriteString
  2246     01BB  2A1B               	goto	l561
  2247     01BC                     l3443:
  2248     01BC  120A  158A  23F2  120A  118A  	fcall	_Motor_Turn_Left
  2249     01C1                     l3445:
  2250     01C1  1283               	bcf	3,5	;RP0=0, select bank0
  2251     01C2  1303               	bcf	3,6	;RP1=0, select bank0
  2252     01C3  01A1               	clrf	LCD_SetCursor@col
  2253     01C4  3000               	movlw	0
  2254     01C5  120A  158A  24C6  120A  118A  	fcall	_LCD_SetCursor
  2255     01CA                     l3447:
  2256     01CA  3022               	movlw	low (STR_28| (0+32768))
  2257     01CB  1283               	bcf	3,5	;RP0=0, select bank0
  2258     01CC  1303               	bcf	3,6	;RP1=0, select bank0
  2259     01CD  00A1               	movwf	LCD_WriteString@str
  2260     01CE  3085               	movlw	high (STR_28| (0+32768))
  2261     01CF  00A2               	movwf	LCD_WriteString@str+1
  2262     01D0  120A  158A  250E  120A  118A  	fcall	_LCD_WriteString
  2263     01D5  2A1B               	goto	l561
  2264     01D6                     l3449:
  2265     01D6  120A  158A  23F9  120A  118A  	fcall	_Motor_Turn_Right
  2266     01DB                     l3451:
  2267     01DB  1283               	bcf	3,5	;RP0=0, select bank0
  2268     01DC  1303               	bcf	3,6	;RP1=0, select bank0
  2269     01DD  01A1               	clrf	LCD_SetCursor@col
  2270     01DE  3000               	movlw	0
  2271     01DF  120A  158A  24C6  120A  118A  	fcall	_LCD_SetCursor
  2272     01E4                     l3453:
  2273     01E4  3044               	movlw	low (STR_29| (0+32768))
  2274     01E5  1283               	bcf	3,5	;RP0=0, select bank0
  2275     01E6  1303               	bcf	3,6	;RP1=0, select bank0
  2276     01E7  00A1               	movwf	LCD_WriteString@str
  2277     01E8  3085               	movlw	high (STR_29| (0+32768))
  2278     01E9  00A2               	movwf	LCD_WriteString@str+1
  2279     01EA  120A  158A  250E  120A  118A  	fcall	_LCD_WriteString
  2280     01EF  2A1B               	goto	l561
  2281     01F0                     l3455:
  2282     01F0  120A  158A  23EB  120A  118A  	fcall	_Motor_Stop
  2283     01F5                     l3457:
  2284     01F5  1283               	bcf	3,5	;RP0=0, select bank0
  2285     01F6  1303               	bcf	3,6	;RP1=0, select bank0
  2286     01F7  01A1               	clrf	LCD_SetCursor@col
  2287     01F8  3000               	movlw	0
  2288     01F9  120A  158A  24C6  120A  118A  	fcall	_LCD_SetCursor
  2289     01FE                     l3459:
  2290     01FE  3011               	movlw	low (STR_30| (0+32768))
  2291     01FF  1283               	bcf	3,5	;RP0=0, select bank0
  2292     0200  1303               	bcf	3,6	;RP1=0, select bank0
  2293     0201  00A1               	movwf	LCD_WriteString@str
  2294     0202  3085               	movlw	high (STR_30| (0+32768))
  2295     0203  00A2               	movwf	LCD_WriteString@str+1
  2296     0204  120A  158A  250E  120A  118A  	fcall	_LCD_WriteString
  2297     0209  2A1B               	goto	l561
  2298     020A                     l3463:
  2299     020A  0840               	movf	main@cmd,w
  2300                           
  2301                           ; Switch size 1, requested type "simple"
  2302                           ; Number of cases is 5, Range of values is 66 to 83
  2303                           ; switch strategies available:
  2304                           ; Name         Instructions Cycles
  2305                           ; simple_byte           16     9 (average)
  2306                           ; direct_byte           65    11 (fixed)
  2307                           ; jumptable            263     9 (fixed)
  2308                           ;	Chosen strategy is simple_byte
  2309     020B  3A42               	xorlw	66	; case 66
  2310     020C  1903               	skipnz
  2311     020D  29A2               	goto	l3437
  2312     020E  3A04               	xorlw	4	; case 70
  2313     020F  1903               	skipnz
  2314     0210  2988               	goto	l3431
  2315     0211  3A0A               	xorlw	10	; case 76
  2316     0212  1903               	skipnz
  2317     0213  29BC               	goto	l3443
  2318     0214  3A1E               	xorlw	30	; case 82
  2319     0215  1903               	skipnz
  2320     0216  29D6               	goto	l3449
  2321     0217  3A01               	xorlw	1	; case 83
  2322     0218  1903               	skipnz
  2323     0219  29F0               	goto	l3455
  2324     021A  2A1B               	goto	l561
  2325     021B                     l561:
  2326     021B  1283               	bcf	3,5	;RP0=0, select bank0
  2327     021C  1303               	bcf	3,6	;RP1=0, select bank0
  2328     021D  1C05               	btfss	5,0	;volatile
  2329     021E  2A20               	goto	u3131
  2330     021F  2A21               	goto	u3130
  2331     0220                     u3131:
  2332     0220  2A24               	goto	l579
  2333     0221                     u3130:
  2334     0221                     l3465:
  2335     0221  3001               	movlw	1
  2336     0222  00C7               	movwf	main@current_state
  2337     0223  2A34               	goto	l3475
  2338     0224                     l579:
  2339     0224  1885               	btfsc	5,1	;volatile
  2340     0225  2A27               	goto	u3141
  2341     0226  2A28               	goto	u3140
  2342     0227                     u3141:
  2343     0227  2A2B               	goto	l3469
  2344     0228                     u3140:
  2345     0228                     l3467:
  2346     0228  3002               	movlw	2
  2347     0229  00C7               	movwf	main@current_state
  2348     022A  2A34               	goto	l3475
  2349     022B                     l3469:
  2350     022B  084A               	movf	_eyes_open,w
  2351     022C  1D03               	btfss	3,2
  2352     022D  2A2F               	goto	u3151
  2353     022E  2A30               	goto	u3150
  2354     022F                     u3151:
  2355     022F  2A33               	goto	l3473
  2356     0230                     u3150:
  2357     0230                     l3471:
  2358     0230  3003               	movlw	3
  2359     0231  00C7               	movwf	main@current_state
  2360     0232  2A34               	goto	l3475
  2361     0233                     l3473:
  2362     0233  01C7               	clrf	main@current_state
  2363     0234                     l3475:
  2364     0234  0847               	movf	main@current_state,w
  2365     0235  0638               	xorwf	main@previous_state,w
  2366     0236  1903               	skipnz
  2367     0237  2A39               	goto	u3161
  2368     0238  2A3A               	goto	u3160
  2369     0239                     u3161:
  2370     0239  2B27               	goto	l3533
  2371     023A                     u3160:
  2372     023A                     l3477:
  2373     023A  120A  158A  2400  120A  118A  	fcall	_LCD_Clear
  2374     023F                     l3479:
  2375     023F  1283               	bcf	3,5	;RP0=0, select bank0
  2376     0240  1303               	bcf	3,6	;RP1=0, select bank0
  2377     0241  0347               	decf	main@current_state,w
  2378     0242  1D03               	btfss	3,2
  2379     0243  2A45               	goto	u3171
  2380     0244  2A46               	goto	u3170
  2381     0245                     u3171:
  2382     0245  2A74               	goto	l3491
  2383     0246                     u3170:
  2384     0246                     l3481:
  2385     0246  120A  158A  23EB  120A  118A  	fcall	_Motor_Stop
  2386     024B                     l3483:
  2387     024B  1283               	bcf	3,5	;RP0=0, select bank0
  2388     024C  1303               	bcf	3,6	;RP1=0, select bank0
  2389     024D  01A1               	clrf	LCD_SetCursor@col
  2390     024E  3000               	movlw	0
  2391     024F  120A  158A  24C6  120A  118A  	fcall	_LCD_SetCursor
  2392     0254                     l3485:
  2393     0254  30FE               	movlw	low (STR_31| (0+32768))
  2394     0255  1283               	bcf	3,5	;RP0=0, select bank0
  2395     0256  1303               	bcf	3,6	;RP1=0, select bank0
  2396     0257  00A1               	movwf	LCD_WriteString@str
  2397     0258  3085               	movlw	high (STR_31| (0+32768))
  2398     0259  00A2               	movwf	LCD_WriteString@str+1
  2399     025A  120A  158A  250E  120A  118A  	fcall	_LCD_WriteString
  2400     025F                     l3487:
  2401     025F  1283               	bcf	3,5	;RP0=0, select bank0
  2402     0260  1303               	bcf	3,6	;RP1=0, select bank0
  2403     0261  01A1               	clrf	LCD_SetCursor@col
  2404     0262  3001               	movlw	1
  2405     0263  120A  158A  24C6  120A  118A  	fcall	_LCD_SetCursor
  2406     0268                     l3489:
  2407     0268  30EE               	movlw	low (STR_32| (0+32768))
  2408     0269  1283               	bcf	3,5	;RP0=0, select bank0
  2409     026A  1303               	bcf	3,6	;RP1=0, select bank0
  2410     026B  00A1               	movwf	LCD_WriteString@str
  2411     026C  3085               	movlw	high (STR_32| (0+32768))
  2412     026D  00A2               	movwf	LCD_WriteString@str+1
  2413     026E  120A  158A  250E  120A  118A  	fcall	_LCD_WriteString
  2414     0273  2B15               	goto	l3529
  2415     0274                     l3491:
  2416     0274  3002               	movlw	2
  2417     0275  0647               	xorwf	main@current_state,w
  2418     0276  1D03               	btfss	3,2
  2419     0277  2A79               	goto	u3181
  2420     0278  2A7A               	goto	u3180
  2421     0279                     u3181:
  2422     0279  2AA8               	goto	l3503
  2423     027A                     u3180:
  2424     027A                     l3493:
  2425     027A  120A  158A  23EB  120A  118A  	fcall	_Motor_Stop
  2426     027F                     l3495:
  2427     027F  1283               	bcf	3,5	;RP0=0, select bank0
  2428     0280  1303               	bcf	3,6	;RP1=0, select bank0
  2429     0281  01A1               	clrf	LCD_SetCursor@col
  2430     0282  3000               	movlw	0
  2431     0283  120A  158A  24C6  120A  118A  	fcall	_LCD_SetCursor
  2432     0288                     l3497:
  2433     0288  30CC               	movlw	low (STR_33| (0+32768))
  2434     0289  1283               	bcf	3,5	;RP0=0, select bank0
  2435     028A  1303               	bcf	3,6	;RP1=0, select bank0
  2436     028B  00A1               	movwf	LCD_WriteString@str
  2437     028C  3085               	movlw	high (STR_33| (0+32768))
  2438     028D  00A2               	movwf	LCD_WriteString@str+1
  2439     028E  120A  158A  250E  120A  118A  	fcall	_LCD_WriteString
  2440     0293                     l3499:
  2441     0293  1283               	bcf	3,5	;RP0=0, select bank0
  2442     0294  1303               	bcf	3,6	;RP1=0, select bank0
  2443     0295  01A1               	clrf	LCD_SetCursor@col
  2444     0296  3001               	movlw	1
  2445     0297  120A  158A  24C6  120A  118A  	fcall	_LCD_SetCursor
  2446     029C                     l3501:
  2447     029C  300E               	movlw	low (STR_34| (0+32768))
  2448     029D  1283               	bcf	3,5	;RP0=0, select bank0
  2449     029E  1303               	bcf	3,6	;RP1=0, select bank0
  2450     029F  00A1               	movwf	LCD_WriteString@str
  2451     02A0  3086               	movlw	high (STR_34| (0+32768))
  2452     02A1  00A2               	movwf	LCD_WriteString@str+1
  2453     02A2  120A  158A  250E  120A  118A  	fcall	_LCD_WriteString
  2454     02A7  2B15               	goto	l3529
  2455     02A8                     l3503:
  2456     02A8  3003               	movlw	3
  2457     02A9  0647               	xorwf	main@current_state,w
  2458     02AA  1D03               	btfss	3,2
  2459     02AB  2AAD               	goto	u3191
  2460     02AC  2AAE               	goto	u3190
  2461     02AD                     u3191:
  2462     02AD  2ADC               	goto	l3515
  2463     02AE                     u3190:
  2464     02AE                     l3505:
  2465     02AE  120A  158A  23EB  120A  118A  	fcall	_Motor_Stop
  2466     02B3                     l3507:
  2467     02B3  1283               	bcf	3,5	;RP0=0, select bank0
  2468     02B4  1303               	bcf	3,6	;RP1=0, select bank0
  2469     02B5  01A1               	clrf	LCD_SetCursor@col
  2470     02B6  3000               	movlw	0
  2471     02B7  120A  158A  24C6  120A  118A  	fcall	_LCD_SetCursor
  2472     02BC                     l3509:
  2473     02BC  30DD               	movlw	low (STR_35| (0+32768))
  2474     02BD  1283               	bcf	3,5	;RP0=0, select bank0
  2475     02BE  1303               	bcf	3,6	;RP1=0, select bank0
  2476     02BF  00A1               	movwf	LCD_WriteString@str
  2477     02C0  3085               	movlw	high (STR_35| (0+32768))
  2478     02C1  00A2               	movwf	LCD_WriteString@str+1
  2479     02C2  120A  158A  250E  120A  118A  	fcall	_LCD_WriteString
  2480     02C7                     l3511:
  2481     02C7  1283               	bcf	3,5	;RP0=0, select bank0
  2482     02C8  1303               	bcf	3,6	;RP1=0, select bank0
  2483     02C9  01A1               	clrf	LCD_SetCursor@col
  2484     02CA  3001               	movlw	1
  2485     02CB  120A  158A  24C6  120A  118A  	fcall	_LCD_SetCursor
  2486     02D0                     l3513:
  2487     02D0  3066               	movlw	low (STR_36| (0+32768))
  2488     02D1  1283               	bcf	3,5	;RP0=0, select bank0
  2489     02D2  1303               	bcf	3,6	;RP1=0, select bank0
  2490     02D3  00A1               	movwf	LCD_WriteString@str
  2491     02D4  3085               	movlw	high (STR_36| (0+32768))
  2492     02D5  00A2               	movwf	LCD_WriteString@str+1
  2493     02D6  120A  158A  250E  120A  118A  	fcall	_LCD_WriteString
  2494     02DB  2B15               	goto	l3529
  2495     02DC                     l3515:
  2496     02DC  083F               	movf	main@drive_mode,w
  2497     02DD  1D03               	btfss	3,2
  2498     02DE  2AE0               	goto	u3201
  2499     02DF  2AE1               	goto	u3200
  2500     02E0                     u3201:
  2501     02E0  2B07               	goto	l3523
  2502     02E1                     u3200:
  2503     02E1                     l3517:
  2504     02E1  01A1               	clrf	LCD_SetCursor@col
  2505     02E2  3000               	movlw	0
  2506     02E3  120A  158A  24C6  120A  118A  	fcall	_LCD_SetCursor
  2507     02E8                     l3519:
  2508     02E8  3000               	movlw	low (STR_37| (0+32768))
  2509     02E9  1283               	bcf	3,5	;RP0=0, select bank0
  2510     02EA  1303               	bcf	3,6	;RP1=0, select bank0
  2511     02EB  00A1               	movwf	LCD_WriteString@str
  2512     02EC  3085               	movlw	high (STR_37| (0+32768))
  2513     02ED  00A2               	movwf	LCD_WriteString@str+1
  2514     02EE  120A  158A  250E  120A  118A  	fcall	_LCD_WriteString
  2515     02F3                     l3521:
  2516     02F3  1283               	bcf	3,5	;RP0=0, select bank0
  2517     02F4  1303               	bcf	3,6	;RP1=0, select bank0
  2518     02F5  01A1               	clrf	LCD_SetCursor@col
  2519     02F6  3001               	movlw	1
  2520     02F7  120A  158A  24C6  120A  118A  	fcall	_LCD_SetCursor
  2521     02FC  30BB               	movlw	low (STR_38| (0+32768))
  2522     02FD  1283               	bcf	3,5	;RP0=0, select bank0
  2523     02FE  1303               	bcf	3,6	;RP1=0, select bank0
  2524     02FF  00A1               	movwf	LCD_WriteString@str
  2525     0300  3085               	movlw	high (STR_38| (0+32768))
  2526     0301  00A2               	movwf	LCD_WriteString@str+1
  2527     0302  120A  158A  250E  120A  118A  	fcall	_LCD_WriteString
  2528     0307                     l3523:
  2529     0307  30E7               	movlw	231
  2530     0308  1283               	bcf	3,5	;RP0=0, select bank0
  2531     0309  1303               	bcf	3,6	;RP1=0, select bank0
  2532     030A  00B9               	movwf	main@old_f
  2533     030B  3003               	movlw	3
  2534     030C  00BA               	movwf	main@old_f+1
  2535     030D                     l3525:
  2536     030D  30E7               	movlw	231
  2537     030E  00BB               	movwf	main@old_l
  2538     030F  3003               	movlw	3
  2539     0310  00BC               	movwf	main@old_l+1
  2540     0311                     l3527:
  2541     0311  30E7               	movlw	231
  2542     0312  00BD               	movwf	main@old_r
  2543     0313  3003               	movlw	3
  2544     0314  00BE               	movwf	main@old_r+1
  2545     0315                     l3529:
  2546     0315  1283               	bcf	3,5	;RP0=0, select bank0
  2547     0316  1303               	bcf	3,6	;RP1=0, select bank0
  2548     0317  0847               	movf	main@current_state,w
  2549     0318  00B8               	movwf	main@previous_state
  2550     0319                     l3531:
  2551     0319  3006               	movlw	6
  2552     031A  1283               	bcf	3,5	;RP0=0, select bank0
  2553     031B  1303               	bcf	3,6	;RP1=0, select bank0
  2554     031C  00B7               	movwf	??_main+2
  2555     031D  3013               	movlw	19
  2556     031E  00B6               	movwf	??_main+1
  2557     031F  30AD               	movlw	173
  2558     0320  00B5               	movwf	??_main
  2559     0321                     u3357:
  2560     0321  0BB5               	decfsz	??_main,f
  2561     0322  2B21               	goto	u3357
  2562     0323  0BB6               	decfsz	??_main+1,f
  2563     0324  2B21               	goto	u3357
  2564     0325  0BB7               	decfsz	??_main+2,f
  2565     0326  2B21               	goto	u3357
  2566     0327                     l3533:
  2567     0327  1283               	bcf	3,5	;RP0=0, select bank0
  2568     0328  1303               	bcf	3,6	;RP1=0, select bank0
  2569     0329  0847               	movf	main@current_state,w
  2570     032A  1D03               	btfss	3,2
  2571     032B  2B2D               	goto	u3211
  2572     032C  2B2E               	goto	u3210
  2573     032D                     u3211:
  2574     032D  2C73               	goto	l3607
  2575     032E                     u3210:
  2576     032E                     l3535:
  2577     032E  083F               	movf	main@drive_mode,w
  2578     032F  1D03               	btfss	3,2
  2579     0330  2B32               	goto	u3221
  2580     0331  2B33               	goto	u3220
  2581     0332                     u3221:
  2582     0332  2C73               	goto	l3607
  2583     0333                     u3220:
  2584     0333                     l3537:
  2585     0333  3000               	movlw	0
  2586     0334  120A  118A  269B  120A  118A  	fcall	_SR04_GetDistance
  2587     0339  1283               	bcf	3,5	;RP0=0, select bank0
  2588     033A  1303               	bcf	3,6	;RP1=0, select bank0
  2589     033B  0821               	movf	?_SR04_GetDistance+1,w
  2590     033C  00C2               	movwf	main@f+1
  2591     033D  0820               	movf	?_SR04_GetDistance,w
  2592     033E  00C1               	movwf	main@f
  2593     033F                     l3539:
  2594     033F  3041               	movlw	65
  2595     0340  1283               	bcf	3,5	;RP0=0, select bank0
  2596     0341  1303               	bcf	3,6	;RP1=0, select bank0
  2597     0342  00B6               	movwf	??_main+1
  2598     0343  30ED               	movlw	237
  2599     0344  00B5               	movwf	??_main
  2600     0345                     u3367:
  2601     0345  0BB5               	decfsz	??_main,f
  2602     0346  2B45               	goto	u3367
  2603     0347  0BB6               	decfsz	??_main+1,f
  2604     0348  2B45               	goto	u3367
  2605     0349  2B4A               	nop2
  2606     034A                     l3541:
  2607     034A  3001               	movlw	1
  2608     034B  120A  118A  269B  120A  118A  	fcall	_SR04_GetDistance
  2609     0350  1283               	bcf	3,5	;RP0=0, select bank0
  2610     0351  1303               	bcf	3,6	;RP1=0, select bank0
  2611     0352  0821               	movf	?_SR04_GetDistance+1,w
  2612     0353  00C4               	movwf	main@l+1
  2613     0354  0820               	movf	?_SR04_GetDistance,w
  2614     0355  00C3               	movwf	main@l
  2615     0356  3041               	movlw	65
  2616     0357  1283               	bcf	3,5	;RP0=0, select bank0
  2617     0358  1303               	bcf	3,6	;RP1=0, select bank0
  2618     0359  00B6               	movwf	??_main+1
  2619     035A  30ED               	movlw	237
  2620     035B  00B5               	movwf	??_main
  2621     035C                     u3377:
  2622     035C  0BB5               	decfsz	??_main,f
  2623     035D  2B5C               	goto	u3377
  2624     035E  0BB6               	decfsz	??_main+1,f
  2625     035F  2B5C               	goto	u3377
  2626     0360  2B61               	nop2
  2627     0361                     l3543:
  2628     0361  3002               	movlw	2
  2629     0362  120A  118A  269B  120A  118A  	fcall	_SR04_GetDistance
  2630     0367  1283               	bcf	3,5	;RP0=0, select bank0
  2631     0368  1303               	bcf	3,6	;RP1=0, select bank0
  2632     0369  0821               	movf	?_SR04_GetDistance+1,w
  2633     036A  00C6               	movwf	main@r+1
  2634     036B  0820               	movf	?_SR04_GetDistance,w
  2635     036C  00C5               	movwf	main@r
  2636     036D                     l3545:
  2637     036D  3041               	movlw	65
  2638     036E  1283               	bcf	3,5	;RP0=0, select bank0
  2639     036F  1303               	bcf	3,6	;RP1=0, select bank0
  2640     0370  00B6               	movwf	??_main+1
  2641     0371  30ED               	movlw	237
  2642     0372  00B5               	movwf	??_main
  2643     0373                     u3387:
  2644     0373  0BB5               	decfsz	??_main,f
  2645     0374  2B73               	goto	u3387
  2646     0375  0BB6               	decfsz	??_main+1,f
  2647     0376  2B73               	goto	u3387
  2648     0377  2B78               	nop2
  2649     0378                     l3547:
  2650     0378  1283               	bcf	3,5	;RP0=0, select bank0
  2651     0379  1303               	bcf	3,6	;RP1=0, select bank0
  2652     037A  083A               	movf	main@old_f+1,w
  2653     037B  0642               	xorwf	main@f+1,w
  2654     037C  1D03               	skipz
  2655     037D  2B80               	goto	u3235
  2656     037E  0839               	movf	main@old_f,w
  2657     037F  0641               	xorwf	main@f,w
  2658     0380                     u3235:
  2659     0380  1903               	skipnz
  2660     0381  2B83               	goto	u3231
  2661     0382  2B84               	goto	u3230
  2662     0383                     u3231:
  2663     0383  2B9D               	goto	l3555
  2664     0384                     u3230:
  2665     0384                     l3549:
  2666     0384  3002               	movlw	2
  2667     0385  00A1               	movwf	LCD_SetCursor@col
  2668     0386  3000               	movlw	0
  2669     0387  120A  158A  24C6  120A  118A  	fcall	_LCD_SetCursor
  2670     038C                     l3551:
  2671     038C  1283               	bcf	3,5	;RP0=0, select bank0
  2672     038D  1303               	bcf	3,6	;RP1=0, select bank0
  2673     038E  0842               	movf	main@f+1,w
  2674     038F  00AC               	movwf	Display_Distance@dist+1
  2675     0390  0841               	movf	main@f,w
  2676     0391  00AB               	movwf	Display_Distance@dist
  2677     0392  120A  158A  2538  120A  118A  	fcall	_Display_Distance
  2678     0397                     l3553:
  2679     0397  1283               	bcf	3,5	;RP0=0, select bank0
  2680     0398  1303               	bcf	3,6	;RP1=0, select bank0
  2681     0399  0842               	movf	main@f+1,w
  2682     039A  00BA               	movwf	main@old_f+1
  2683     039B  0841               	movf	main@f,w
  2684     039C  00B9               	movwf	main@old_f
  2685     039D                     l3555:
  2686     039D  083C               	movf	main@old_l+1,w
  2687     039E  0644               	xorwf	main@l+1,w
  2688     039F  1D03               	skipz
  2689     03A0  2BA3               	goto	u3245
  2690     03A1  083B               	movf	main@old_l,w
  2691     03A2  0643               	xorwf	main@l,w
  2692     03A3                     u3245:
  2693     03A3  1903               	skipnz
  2694     03A4  2BA6               	goto	u3241
  2695     03A5  2BA7               	goto	u3240
  2696     03A6                     u3241:
  2697     03A6  2BC0               	goto	l3563
  2698     03A7                     u3240:
  2699     03A7                     l3557:
  2700     03A7  3002               	movlw	2
  2701     03A8  00A1               	movwf	LCD_SetCursor@col
  2702     03A9  3001               	movlw	1
  2703     03AA  120A  158A  24C6  120A  118A  	fcall	_LCD_SetCursor
  2704     03AF                     l3559:
  2705     03AF  1283               	bcf	3,5	;RP0=0, select bank0
  2706     03B0  1303               	bcf	3,6	;RP1=0, select bank0
  2707     03B1  0844               	movf	main@l+1,w
  2708     03B2  00AC               	movwf	Display_Distance@dist+1
  2709     03B3  0843               	movf	main@l,w
  2710     03B4  00AB               	movwf	Display_Distance@dist
  2711     03B5  120A  158A  2538  120A  118A  	fcall	_Display_Distance
  2712     03BA                     l3561:
  2713     03BA  1283               	bcf	3,5	;RP0=0, select bank0
  2714     03BB  1303               	bcf	3,6	;RP1=0, select bank0
  2715     03BC  0844               	movf	main@l+1,w
  2716     03BD  00BC               	movwf	main@old_l+1
  2717     03BE  0843               	movf	main@l,w
  2718     03BF  00BB               	movwf	main@old_l
  2719     03C0                     l3563:
  2720     03C0  083E               	movf	main@old_r+1,w
  2721     03C1  0646               	xorwf	main@r+1,w
  2722     03C2  1D03               	skipz
  2723     03C3  2BC6               	goto	u3255
  2724     03C4  083D               	movf	main@old_r,w
  2725     03C5  0645               	xorwf	main@r,w
  2726     03C6                     u3255:
  2727     03C6  1903               	skipnz
  2728     03C7  2BC9               	goto	u3251
  2729     03C8  2BCA               	goto	u3250
  2730     03C9                     u3251:
  2731     03C9  2BE3               	goto	l3571
  2732     03CA                     u3250:
  2733     03CA                     l3565:
  2734     03CA  300A               	movlw	10
  2735     03CB  00A1               	movwf	LCD_SetCursor@col
  2736     03CC  3001               	movlw	1
  2737     03CD  120A  158A  24C6  120A  118A  	fcall	_LCD_SetCursor
  2738     03D2                     l3567:
  2739     03D2  1283               	bcf	3,5	;RP0=0, select bank0
  2740     03D3  1303               	bcf	3,6	;RP1=0, select bank0
  2741     03D4  0846               	movf	main@r+1,w
  2742     03D5  00AC               	movwf	Display_Distance@dist+1
  2743     03D6  0845               	movf	main@r,w
  2744     03D7  00AB               	movwf	Display_Distance@dist
  2745     03D8  120A  158A  2538  120A  118A  	fcall	_Display_Distance
  2746     03DD                     l3569:
  2747     03DD  1283               	bcf	3,5	;RP0=0, select bank0
  2748     03DE  1303               	bcf	3,6	;RP1=0, select bank0
  2749     03DF  0846               	movf	main@r+1,w
  2750     03E0  00BE               	movwf	main@old_r+1
  2751     03E1  0845               	movf	main@r,w
  2752     03E2  00BD               	movwf	main@old_r
  2753     03E3                     l3571:
  2754     03E3  3000               	movlw	0
  2755     03E4  0242               	subwf	main@f+1,w
  2756     03E5  301F               	movlw	31
  2757     03E6  1903               	skipnz
  2758     03E7  0241               	subwf	main@f,w
  2759     03E8  1C03               	skipc
  2760     03E9  2BEB               	goto	u3261
  2761     03EA  2BEC               	goto	u3260
  2762     03EB                     u3261:
  2763     03EB  2BF2               	goto	l3575
  2764     03EC                     u3260:
  2765     03EC                     l3573:
  2766     03EC  120A  158A  23DD  120A  118A  	fcall	_Motor_Forward
  2767     03F1  2C73               	goto	l3607
  2768     03F2                     l3575:
  2769     03F2  120A  158A  23EB  120A  118A  	fcall	_Motor_Stop
  2770     03F7                     l3577:
  2771     03F7  3006               	movlw	6
  2772     03F8  1283               	bcf	3,5	;RP0=0, select bank0
  2773     03F9  1303               	bcf	3,6	;RP1=0, select bank0
  2774     03FA  00B7               	movwf	??_main+2
  2775     03FB  3013               	movlw	19
  2776     03FC  00B6               	movwf	??_main+1
  2777     03FD  30AD               	movlw	173
  2778     03FE  00B5               	movwf	??_main
  2779     03FF                     u3397:
  2780     03FF  0BB5               	decfsz	??_main,f
  2781     0400  2BFF               	goto	u3397
  2782     0401  0BB6               	decfsz	??_main+1,f
  2783     0402  2BFF               	goto	u3397
  2784     0403  0BB7               	decfsz	??_main+2,f
  2785     0404  2BFF               	goto	u3397
  2786     0405                     l3579:
  2787     0405  1283               	bcf	3,5	;RP0=0, select bank0
  2788     0406  1303               	bcf	3,6	;RP1=0, select bank0
  2789     0407  0844               	movf	main@l+1,w
  2790     0408  0246               	subwf	main@r+1,w
  2791     0409  1D03               	skipz
  2792     040A  2C0D               	goto	u3275
  2793     040B  0843               	movf	main@l,w
  2794     040C  0245               	subwf	main@r,w
  2795     040D                     u3275:
  2796     040D  1803               	skipnc
  2797     040E  2C10               	goto	u3271
  2798     040F  2C11               	goto	u3270
  2799     0410                     u3271:
  2800     0410  2C33               	goto	l3589
  2801     0411                     u3270:
  2802     0411                     l3581:
  2803     0411  3000               	movlw	0
  2804     0412  0244               	subwf	main@l+1,w
  2805     0413  301F               	movlw	31
  2806     0414  1903               	skipnz
  2807     0415  0243               	subwf	main@l,w
  2808     0416  1C03               	skipc
  2809     0417  2C19               	goto	u3281
  2810     0418  2C1A               	goto	u3280
  2811     0419                     u3281:
  2812     0419  2C33               	goto	l3589
  2813     041A                     u3280:
  2814     041A                     l3583:
  2815     041A  120A  158A  23F2  120A  118A  	fcall	_Motor_Turn_Left
  2816     041F                     l3585:
  2817     041F  300B               	movlw	11
  2818     0420  1283               	bcf	3,5	;RP0=0, select bank0
  2819     0421  1303               	bcf	3,6	;RP1=0, select bank0
  2820     0422  00B7               	movwf	??_main+2
  2821     0423  3026               	movlw	38
  2822     0424  00B6               	movwf	??_main+1
  2823     0425  305D               	movlw	93
  2824     0426  00B5               	movwf	??_main
  2825     0427                     u3407:
  2826     0427  0BB5               	decfsz	??_main,f
  2827     0428  2C27               	goto	u3407
  2828     0429  0BB6               	decfsz	??_main+1,f
  2829     042A  2C27               	goto	u3407
  2830     042B  0BB7               	decfsz	??_main+2,f
  2831     042C  2C27               	goto	u3407
  2832     042D                     l3587:
  2833     042D  120A  158A  23EB  120A  118A  	fcall	_Motor_Stop
  2834     0432  2C73               	goto	l3607
  2835     0433                     l3589:
  2836     0433  0846               	movf	main@r+1,w
  2837     0434  0244               	subwf	main@l+1,w
  2838     0435  1D03               	skipz
  2839     0436  2C39               	goto	u3295
  2840     0437  0845               	movf	main@r,w
  2841     0438  0243               	subwf	main@l,w
  2842     0439                     u3295:
  2843     0439  1803               	skipnc
  2844     043A  2C3C               	goto	u3291
  2845     043B  2C3D               	goto	u3290
  2846     043C                     u3291:
  2847     043C  2C4C               	goto	l3599
  2848     043D                     u3290:
  2849     043D                     l3591:
  2850     043D  3000               	movlw	0
  2851     043E  0246               	subwf	main@r+1,w
  2852     043F  301F               	movlw	31
  2853     0440  1903               	skipnz
  2854     0441  0245               	subwf	main@r,w
  2855     0442  1C03               	skipc
  2856     0443  2C45               	goto	u3301
  2857     0444  2C46               	goto	u3300
  2858     0445                     u3301:
  2859     0445  2C4C               	goto	l3599
  2860     0446                     u3300:
  2861     0446                     l3593:
  2862     0446  120A  158A  23F9  120A  118A  	fcall	_Motor_Turn_Right
  2863     044B  2C1F               	goto	l3585
  2864     044C                     l3599:
  2865     044C  120A  158A  23E4  120A  118A  	fcall	_Motor_Reverse
  2866     0451                     l3601:
  2867     0451  3010               	movlw	16
  2868     0452  1283               	bcf	3,5	;RP0=0, select bank0
  2869     0453  1303               	bcf	3,6	;RP1=0, select bank0
  2870     0454  00B7               	movwf	??_main+2
  2871     0455  3039               	movlw	57
  2872     0456  00B6               	movwf	??_main+1
  2873     0457  300D               	movlw	13
  2874     0458  00B5               	movwf	??_main
  2875     0459                     u3417:
  2876     0459  0BB5               	decfsz	??_main,f
  2877     045A  2C59               	goto	u3417
  2878     045B  0BB6               	decfsz	??_main+1,f
  2879     045C  2C59               	goto	u3417
  2880     045D  0BB7               	decfsz	??_main+2,f
  2881     045E  2C59               	goto	u3417
  2882     045F                     l3603:
  2883     045F  120A  158A  23F9  120A  118A  	fcall	_Motor_Turn_Right
  2884     0464  3010               	movlw	16
  2885     0465  1283               	bcf	3,5	;RP0=0, select bank0
  2886     0466  1303               	bcf	3,6	;RP1=0, select bank0
  2887     0467  00B7               	movwf	??_main+2
  2888     0468  3039               	movlw	57
  2889     0469  00B6               	movwf	??_main+1
  2890     046A  300D               	movlw	13
  2891     046B  00B5               	movwf	??_main
  2892     046C                     u3427:
  2893     046C  0BB5               	decfsz	??_main,f
  2894     046D  2C6C               	goto	u3427
  2895     046E  0BB6               	decfsz	??_main+1,f
  2896     046F  2C6C               	goto	u3427
  2897     0470  0BB7               	decfsz	??_main+2,f
  2898     0471  2C6C               	goto	u3427
  2899     0472  2C2D               	goto	l3587
  2900     0473                     l3607:
  2901     0473  3000               	movlw	0
  2902     0474  1283               	bcf	3,5	;RP0=0, select bank0
  2903     0475  1303               	bcf	3,6	;RP1=0, select bank0
  2904     0476  1885               	btfsc	5,1	;volatile
  2905     0477  3001               	movlw	1
  2906     0478  00A9               	movwf	UART_SendLog@belt_state
  2907     0479  0842               	movf	main@f+1,w
  2908     047A  00AB               	movwf	UART_SendLog@f_dist+1
  2909     047B  0841               	movf	main@f,w
  2910     047C  00AA               	movwf	UART_SendLog@f_dist
  2911     047D  0844               	movf	main@l+1,w
  2912     047E  00AD               	movwf	UART_SendLog@l_dist+1
  2913     047F  0843               	movf	main@l,w
  2914     0480  00AC               	movwf	UART_SendLog@l_dist
  2915     0481  0846               	movf	main@r+1,w
  2916     0482  00AF               	movwf	UART_SendLog@r_dist+1
  2917     0483  0845               	movf	main@r,w
  2918     0484  00AE               	movwf	UART_SendLog@r_dist
  2919     0485  1003               	clrc
  2920     0486  1C05               	btfss	5,0	;volatile
  2921     0487  1403               	setc
  2922     0488  3000               	movlw	0
  2923     0489  1803               	skipnc
  2924     048A  3001               	movlw	1
  2925     048B  120A  158A  277C  120A  118A  	fcall	_UART_SendLog
  2926     0490                     l3609:
  2927     0490  3002               	movlw	2
  2928     0491  1283               	bcf	3,5	;RP0=0, select bank0
  2929     0492  1303               	bcf	3,6	;RP1=0, select bank0
  2930     0493  00B7               	movwf	??_main+2
  2931     0494  3045               	movlw	69
  2932     0495  00B6               	movwf	??_main+1
  2933     0496  30A9               	movlw	169
  2934     0497  00B5               	movwf	??_main
  2935     0498                     u3437:
  2936     0498  0BB5               	decfsz	??_main,f
  2937     0499  2C98               	goto	u3437
  2938     049A  0BB6               	decfsz	??_main+1,f
  2939     049B  2C98               	goto	u3437
  2940     049C  0BB7               	decfsz	??_main+2,f
  2941     049D  2C98               	goto	u3437
  2942     049E  28DC               	goto	l3377
  2943     049F  120A  118A  280C   	ljmp	start
  2944     04A2                     __end_of_main:
  2945                           
  2946                           	psect	text1
  2947     0F7C                     __ptext1:	
  2948 ;; *************** function _UART_SendLog *****************
  2949 ;; Defined at:
  2950 ;;		line 77 in file "../MCAL/UART/UART_interface.c"
  2951 ;; Parameters:    Size  Location     Type
  2952 ;;  door_state      1    wreg     unsigned char 
  2953 ;;  belt_state      1    9[BANK0 ] unsigned char 
  2954 ;;  f_dist          2   10[BANK0 ] unsigned short 
  2955 ;;  l_dist          2   12[BANK0 ] unsigned short 
  2956 ;;  r_dist          2   14[BANK0 ] unsigned short 
  2957 ;; Auto vars:     Size  Location     Type
  2958 ;;  door_state      1   16[BANK0 ] unsigned char 
  2959 ;; Return value:  Size  Location     Type
  2960 ;;                  1    wreg      void 
  2961 ;; Registers used:
  2962 ;;		wreg, fsr0l, fsr0h, status,2, status,0, pclath, btemp1, cstack
  2963 ;; Tracked objects:
  2964 ;;		On entry : 0/0
  2965 ;;		On exit  : 0/0
  2966 ;;		Unchanged: 0/0
  2967 ;; Data sizes:     COMMON   BANK0   BANK1   BANK3   BANK2
  2968 ;;      Params:         0       7       0       0       0
  2969 ;;      Locals:         0       5       0       0       0
  2970 ;;      Temps:          0       0       0       0       0
  2971 ;;      Totals:         0      12       0       0       0
  2972 ;;Total ram usage:       12 bytes
  2973 ;; Hardware stack levels used: 1
  2974 ;; Hardware stack levels required when called: 3
  2975 ;; This function calls:
  2976 ;;		_UART_SendChar
  2977 ;;		_UART_SendString
  2978 ;;		_UART_SendUInt
  2979 ;; This function is called by:
  2980 ;;		_main
  2981 ;; This function uses a non-reentrant model
  2982 ;;
  2983                           
  2984     0F7C                     _UART_SendLog:	
  2985                           ;psect for function _UART_SendLog
  2986                           
  2987                           
  2988                           ;incstack = 0
  2989                           ; Regs used in _UART_SendLog: [wreg-fsr0h+status,2+status,0+pclath+btemp1+cstack]
  2990                           ;UART_SendLog@door_state stored from wreg
  2991     0F7C  1283               	bcf	3,5	;RP0=0, select bank0
  2992     0F7D  1303               	bcf	3,6	;RP1=0, select bank0
  2993     0F7E  00B0               	movwf	UART_SendLog@door_state
  2994     0F7F                     l3123:
  2995                           
  2996                           ;../MCAL/UART/UART_interface.c: 77: void UART_SendLog(u8 door_state, u8 belt_state,;../M
      +                          CAL/UART/UART_interface.c: 78:                   u16 f_dist, u16 l_dist, u16 r_dist);../
      +                          MCAL/UART/UART_interface.c: 79: {;../MCAL/UART/UART_interface.c: 80:     UART_SendString
      +                          ("F:"); UART_SendUInt(f_dist);
  2997     0F7F  3098               	movlw	low (STR_1| (0+32768))
  2998     0F80  00F3               	movwf	UART_SendString@str
  2999     0F81  3086               	movlw	high (STR_1| (0+32768))
  3000     0F82  00F4               	movwf	UART_SendString@str+1
  3001     0F83  120A  158A  24E8  120A  158A  	fcall	_UART_SendString
  3002     0F88                     l3125:
  3003     0F88  1283               	bcf	3,5	;RP0=0, select bank0
  3004     0F89  1303               	bcf	3,6	;RP1=0, select bank0
  3005     0F8A  082B               	movf	UART_SendLog@f_dist+1,w
  3006     0F8B  00A1               	movwf	UART_SendUInt@num+1
  3007     0F8C  082A               	movf	UART_SendLog@f_dist,w
  3008     0F8D  00A0               	movwf	UART_SendUInt@num
  3009     0F8E  120A  118A  24A2  120A  158A  	fcall	_UART_SendUInt
  3010     0F93                     l3127:
  3011                           
  3012                           ;../MCAL/UART/UART_interface.c: 81:     UART_SendString(" L:"); UART_SendUInt(l_dist);
  3013     0F93  308A               	movlw	low (STR_2| (0+32768))
  3014     0F94  00F3               	movwf	UART_SendString@str
  3015     0F95  3086               	movlw	high (STR_2| (0+32768))
  3016     0F96  00F4               	movwf	UART_SendString@str+1
  3017     0F97  120A  158A  24E8  120A  158A  	fcall	_UART_SendString
  3018     0F9C  1283               	bcf	3,5	;RP0=0, select bank0
  3019     0F9D  1303               	bcf	3,6	;RP1=0, select bank0
  3020     0F9E  082D               	movf	UART_SendLog@l_dist+1,w
  3021     0F9F  00A1               	movwf	UART_SendUInt@num+1
  3022     0FA0  082C               	movf	UART_SendLog@l_dist,w
  3023     0FA1  00A0               	movwf	UART_SendUInt@num
  3024     0FA2  120A  118A  24A2  120A  158A  	fcall	_UART_SendUInt
  3025     0FA7                     l3129:
  3026                           
  3027                           ;../MCAL/UART/UART_interface.c: 82:     UART_SendString(" R:"); UART_SendUInt(r_dist);
  3028     0FA7  308E               	movlw	low (STR_3| (0+32768))
  3029     0FA8  00F3               	movwf	UART_SendString@str
  3030     0FA9  3086               	movlw	high (STR_3| (0+32768))
  3031     0FAA  00F4               	movwf	UART_SendString@str+1
  3032     0FAB  120A  158A  24E8  120A  158A  	fcall	_UART_SendString
  3033     0FB0                     l3131:
  3034     0FB0  1283               	bcf	3,5	;RP0=0, select bank0
  3035     0FB1  1303               	bcf	3,6	;RP1=0, select bank0
  3036     0FB2  082F               	movf	UART_SendLog@r_dist+1,w
  3037     0FB3  00A1               	movwf	UART_SendUInt@num+1
  3038     0FB4  082E               	movf	UART_SendLog@r_dist,w
  3039     0FB5  00A0               	movwf	UART_SendUInt@num
  3040     0FB6  120A  118A  24A2  120A  158A  	fcall	_UART_SendUInt
  3041                           
  3042                           ;../MCAL/UART/UART_interface.c: 83:     UART_SendString(" D:"); UART_SendChar(door_state
      +                           ? '1' : '0');
  3043     0FBB  3086               	movlw	low (STR_4| (0+32768))
  3044     0FBC  00F3               	movwf	UART_SendString@str
  3045     0FBD  3086               	movlw	high (STR_4| (0+32768))
  3046     0FBE  00F4               	movwf	UART_SendString@str+1
  3047     0FBF  120A  158A  24E8  120A  158A  	fcall	_UART_SendString
  3048     0FC4                     l3133:
  3049     0FC4  1283               	bcf	3,5	;RP0=0, select bank0
  3050     0FC5  1303               	bcf	3,6	;RP1=0, select bank0
  3051     0FC6  0830               	movf	UART_SendLog@door_state,w
  3052     0FC7  1D03               	btfss	3,2
  3053     0FC8  2FCA               	goto	u2781
  3054     0FC9  2FCB               	goto	u2780
  3055     0FCA                     u2781:
  3056     0FCA  2FD0               	goto	l3137
  3057     0FCB                     u2780:
  3058     0FCB                     l3135:
  3059     0FCB  3030               	movlw	48
  3060     0FCC  00B1               	movwf	_UART_SendLog$212
  3061     0FCD  3000               	movlw	0
  3062     0FCE  00B2               	movwf	_UART_SendLog$212+1
  3063     0FCF  2FD4               	goto	l3139
  3064     0FD0                     l3137:
  3065     0FD0  3031               	movlw	49
  3066     0FD1  00B1               	movwf	_UART_SendLog$212
  3067     0FD2  3000               	movlw	0
  3068     0FD3  00B2               	movwf	_UART_SendLog$212+1
  3069     0FD4                     l3139:
  3070     0FD4  0831               	movf	_UART_SendLog$212,w
  3071     0FD5  120A  158A  2448  120A  158A  	fcall	_UART_SendChar
  3072     0FDA                     l3141:
  3073                           
  3074                           ;../MCAL/UART/UART_interface.c: 84:     UART_SendString(" B:"); UART_SendChar(belt_state
      +                           ? '1' : '0');
  3075     0FDA  3082               	movlw	low (STR_5| (0+32768))
  3076     0FDB  00F3               	movwf	UART_SendString@str
  3077     0FDC  3086               	movlw	high (STR_5| (0+32768))
  3078     0FDD  00F4               	movwf	UART_SendString@str+1
  3079     0FDE  120A  158A  24E8  120A  158A  	fcall	_UART_SendString
  3080     0FE3                     l3143:
  3081     0FE3  1283               	bcf	3,5	;RP0=0, select bank0
  3082     0FE4  1303               	bcf	3,6	;RP1=0, select bank0
  3083     0FE5  0829               	movf	UART_SendLog@belt_state,w
  3084     0FE6  1D03               	btfss	3,2
  3085     0FE7  2FE9               	goto	u2791
  3086     0FE8  2FEA               	goto	u2790
  3087     0FE9                     u2791:
  3088     0FE9  2FEF               	goto	l3147
  3089     0FEA                     u2790:
  3090     0FEA                     l3145:
  3091     0FEA  3030               	movlw	48
  3092     0FEB  00B3               	movwf	_UART_SendLog$214
  3093     0FEC  3000               	movlw	0
  3094     0FED  00B4               	movwf	_UART_SendLog$214+1
  3095     0FEE  2FF3               	goto	l3149
  3096     0FEF                     l3147:
  3097     0FEF  3031               	movlw	49
  3098     0FF0  00B3               	movwf	_UART_SendLog$214
  3099     0FF1  3000               	movlw	0
  3100     0FF2  00B4               	movwf	_UART_SendLog$214+1
  3101     0FF3                     l3149:
  3102     0FF3  0833               	movf	_UART_SendLog$214,w
  3103     0FF4  120A  158A  2448  120A  158A  	fcall	_UART_SendChar
  3104     0FF9                     l3151:
  3105                           
  3106                           ;../MCAL/UART/UART_interface.c: 85:     UART_SendChar('\n');
  3107     0FF9  300A               	movlw	10
  3108     0FFA  120A  158A  2448  120A  158A  	fcall	_UART_SendChar
  3109     0FFF                     l67:
  3110     0FFF  0008               	return
  3111     1000                     __end_of_UART_SendLog:
  3112                           
  3113                           	psect	text2
  3114     04A2                     __ptext2:	
  3115 ;; *************** function _UART_SendUInt *****************
  3116 ;; Defined at:
  3117 ;;		line 51 in file "../MCAL/UART/UART_interface.c"
  3118 ;; Parameters:    Size  Location     Type
  3119 ;;  num             2    0[BANK0 ] unsigned short 
  3120 ;; Auto vars:     Size  Location     Type
  3121 ;;  buf             6    2[BANK0 ] unsigned char [6]
  3122 ;;  i               1    8[BANK0 ] unsigned char 
  3123 ;; Return value:  Size  Location     Type
  3124 ;;                  1    wreg      void 
  3125 ;; Registers used:
  3126 ;;		wreg, fsr0l, fsr0h, status,2, status,0, pclath, cstack
  3127 ;; Tracked objects:
  3128 ;;		On entry : 0/0
  3129 ;;		On exit  : 0/0
  3130 ;;		Unchanged: 0/0
  3131 ;; Data sizes:     COMMON   BANK0   BANK1   BANK3   BANK2
  3132 ;;      Params:         0       2       0       0       0
  3133 ;;      Locals:         0       7       0       0       0
  3134 ;;      Temps:          0       0       0       0       0
  3135 ;;      Totals:         0       9       0       0       0
  3136 ;;Total ram usage:        9 bytes
  3137 ;; Hardware stack levels used: 1
  3138 ;; Hardware stack levels required when called: 2
  3139 ;; This function calls:
  3140 ;;		_UART_SendChar
  3141 ;;		___lwdiv
  3142 ;;		___lwmod
  3143 ;; This function is called by:
  3144 ;;		_UART_SendLog
  3145 ;; This function uses a non-reentrant model
  3146 ;;
  3147                           
  3148     04A2                     _UART_SendUInt:	
  3149                           ;psect for function _UART_SendUInt
  3150                           
  3151     04A2                     l3071:	
  3152                           ;incstack = 0
  3153                           ; Regs used in _UART_SendUInt: [wreg-fsr0h+status,2+status,0+pclath+cstack]
  3154                           
  3155                           
  3156                           ;../MCAL/UART/UART_interface.c: 51: void UART_SendUInt(u16 num);../MCAL/UART/UART_interf
      +                          ace.c: 52: {;../MCAL/UART/UART_interface.c: 53:     char buf[6];;../MCAL/UART/UART_inter
      +                          face.c: 54:     u8 i = 0;
  3157     04A2  1283               	bcf	3,5	;RP0=0, select bank0
  3158     04A3  1303               	bcf	3,6	;RP1=0, select bank0
  3159     04A4  01A8               	clrf	UART_SendUInt@i
  3160     04A5                     l3073:
  3161                           
  3162                           ;../MCAL/UART/UART_interface.c: 55:     if (num == 0) { UART_SendChar('0'); return; }
  3163     04A5  0820               	movf	UART_SendUInt@num,w
  3164     04A6  0421               	iorwf	UART_SendUInt@num+1,w
  3165     04A7  1D03               	btfss	3,2
  3166     04A8  2CAA               	goto	u2701
  3167     04A9  2CAB               	goto	u2700
  3168     04AA                     u2701:
  3169     04AA  2CDD               	goto	l3085
  3170     04AB                     u2700:
  3171     04AB                     l3075:
  3172     04AB  3030               	movlw	48
  3173     04AC  120A  158A  2448  120A  118A  	fcall	_UART_SendChar
  3174     04B1  2CF7               	goto	l41
  3175     04B2                     l3079:
  3176                           
  3177                           ;../MCAL/UART/UART_interface.c: 57:     {;../MCAL/UART/UART_interface.c: 58:         buf
      +                          [i++] = (char)((num % 10) + '0');
  3178     04B2  0828               	movf	UART_SendUInt@i,w
  3179     04B3  3E22               	addlw	(low (UART_SendUInt@buf| 0))& (0+255)
  3180     04B4  0084               	movwf	4
  3181     04B5  300A               	movlw	10
  3182     04B6  00F2               	movwf	___lwmod@divisor
  3183     04B7  3000               	movlw	0
  3184     04B8  00F3               	movwf	___lwmod@divisor+1
  3185     04B9  0821               	movf	UART_SendUInt@num+1,w
  3186     04BA  00F5               	movwf	___lwmod@dividend+1
  3187     04BB  0820               	movf	UART_SendUInt@num,w
  3188     04BC  00F4               	movwf	___lwmod@dividend
  3189     04BD  120A  158A  2598  120A  118A  	fcall	___lwmod
  3190     04C2  0872               	movf	?___lwmod,w
  3191     04C3  3E30               	addlw	48
  3192     04C4  1383               	bcf	3,7	;select IRP bank0
  3193     04C5  0080               	movwf	0
  3194     04C6                     l3081:
  3195     04C6  3001               	movlw	1
  3196     04C7  1283               	bcf	3,5	;RP0=0, select bank0
  3197     04C8  1303               	bcf	3,6	;RP1=0, select bank0
  3198     04C9  07A8               	addwf	UART_SendUInt@i,f
  3199     04CA                     l3083:
  3200                           
  3201                           ;../MCAL/UART/UART_interface.c: 59:         num /= 10;
  3202     04CA  300A               	movlw	10
  3203     04CB  00F2               	movwf	___lwdiv@divisor
  3204     04CC  3000               	movlw	0
  3205     04CD  00F3               	movwf	___lwdiv@divisor+1
  3206     04CE  0821               	movf	UART_SendUInt@num+1,w
  3207     04CF  00F5               	movwf	___lwdiv@dividend+1
  3208     04D0  0820               	movf	UART_SendUInt@num,w
  3209     04D1  00F4               	movwf	___lwdiv@dividend
  3210     04D2  120A  158A  260B  120A  118A  	fcall	___lwdiv
  3211     04D7  0873               	movf	?___lwdiv+1,w
  3212     04D8  1283               	bcf	3,5	;RP0=0, select bank0
  3213     04D9  1303               	bcf	3,6	;RP1=0, select bank0
  3214     04DA  00A1               	movwf	UART_SendUInt@num+1
  3215     04DB  0872               	movf	?___lwdiv,w
  3216     04DC  00A0               	movwf	UART_SendUInt@num
  3217     04DD                     l3085:
  3218                           
  3219                           ;../MCAL/UART/UART_interface.c: 56:     while (num > 0)
  3220     04DD  0820               	movf	UART_SendUInt@num,w
  3221     04DE  0421               	iorwf	UART_SendUInt@num+1,w
  3222     04DF  1D03               	btfss	3,2
  3223     04E0  2CE2               	goto	u2711
  3224     04E1  2CE3               	goto	u2710
  3225     04E2                     u2711:
  3226     04E2  2CB2               	goto	l3079
  3227     04E3                     u2710:
  3228     04E3  2CF0               	goto	l3089
  3229     04E4                     l3087:
  3230     04E4  3001               	movlw	1
  3231     04E5  02A8               	subwf	UART_SendUInt@i,f
  3232     04E6  0828               	movf	UART_SendUInt@i,w
  3233     04E7  3E22               	addlw	(low (UART_SendUInt@buf| 0))& (0+255)
  3234     04E8  0084               	movwf	4
  3235     04E9  1383               	bcf	3,7	;select IRP bank0
  3236     04EA  0800               	movf	0,w
  3237     04EB  120A  158A  2448  120A  118A  	fcall	_UART_SendChar
  3238     04F0                     l3089:
  3239     04F0  1283               	bcf	3,5	;RP0=0, select bank0
  3240     04F1  1303               	bcf	3,6	;RP1=0, select bank0
  3241     04F2  0828               	movf	UART_SendUInt@i,w
  3242     04F3  1D03               	btfss	3,2
  3243     04F4  2CF6               	goto	u2721
  3244     04F5  2CF7               	goto	u2720
  3245     04F6                     u2721:
  3246     04F6  2CE4               	goto	l3087
  3247     04F7                     u2720:
  3248     04F7                     l41:
  3249     04F7  0008               	return
  3250     04F8                     __end_of_UART_SendUInt:
  3251                           
  3252                           	psect	text3
  3253     0CE8                     __ptext3:	
  3254 ;; *************** function _UART_SendString *****************
  3255 ;; Defined at:
  3256 ;;		line 42 in file "../MCAL/UART/UART_interface.c"
  3257 ;; Parameters:    Size  Location     Type
  3258 ;;  str             2    3[COMMON] PTR const unsigned char 
  3259 ;;		 -> STR_21(9), STR_16(3), STR_15(8), STR_14(8), 
  3260 ;;		 -> STR_13(7), STR_12(8), STR_11(4), STR_10(3), 
  3261 ;;		 -> STR_9(7), STR_8(5), STR_7(7), STR_6(6), 
  3262 ;;		 -> STR_5(4), STR_4(4), STR_3(4), STR_2(4), 
  3263 ;;		 -> STR_1(3), 
  3264 ;; Auto vars:     Size  Location     Type
  3265 ;;		None
  3266 ;; Return value:  Size  Location     Type
  3267 ;;                  1    wreg      void 
  3268 ;; Registers used:
  3269 ;;		wreg, fsr0l, fsr0h, status,2, status,0, pclath, btemp1, cstack
  3270 ;; Tracked objects:
  3271 ;;		On entry : 0/0
  3272 ;;		On exit  : 0/0
  3273 ;;		Unchanged: 0/0
  3274 ;; Data sizes:     COMMON   BANK0   BANK1   BANK3   BANK2
  3275 ;;      Params:         2       0       0       0       0
  3276 ;;      Locals:         0       0       0       0       0
  3277 ;;      Temps:          0       0       0       0       0
  3278 ;;      Totals:         2       0       0       0       0
  3279 ;;Total ram usage:        2 bytes
  3280 ;; Hardware stack levels used: 1
  3281 ;; Hardware stack levels required when called: 1
  3282 ;; This function calls:
  3283 ;;		_UART_SendChar
  3284 ;; This function is called by:
  3285 ;;		_UART_SendLog
  3286 ;;		_main
  3287 ;;		_BT_SendLog
  3288 ;; This function uses a non-reentrant model
  3289 ;;
  3290                           
  3291     0CE8                     _UART_SendString:	
  3292                           ;psect for function _UART_SendString
  3293                           
  3294     0CE8                     l2303:	
  3295                           ;incstack = 0
  3296                           ; Regs used in _UART_SendString: [wreg-fsr0h+status,2+status,0+pclath+btemp1+cstack]
  3297                           
  3298                           
  3299                           ;../MCAL/UART/UART_interface.c: 42: void UART_SendString(const char *str);../MCAL/UART/U
      +                          ART_interface.c: 43: {;../MCAL/UART/UART_interface.c: 44:     while (*str)
  3300     0CE8  2CFD               	goto	l2309
  3301     0CE9                     l2305:
  3302                           
  3303                           ;../MCAL/UART/UART_interface.c: 45:     {;../MCAL/UART/UART_interface.c: 46:         UAR
      +                          T_SendChar((u8)*str);
  3304     0CE9  0874               	movf	UART_SendString@str+1,w
  3305     0CEA  00FF               	movwf	btemp1
  3306     0CEB  0873               	movf	UART_SendString@str,w
  3307     0CEC  0084               	movwf	4
  3308     0CED  120A  158A  2000  120A  158A  	fcall	stringtab
  3309     0CF2  120A  158A  2448  120A  158A  	fcall	_UART_SendChar
  3310     0CF7                     l2307:
  3311                           
  3312                           ;../MCAL/UART/UART_interface.c: 47:         str++;
  3313     0CF7  3001               	movlw	1
  3314     0CF8  07F3               	addwf	UART_SendString@str,f
  3315     0CF9  1803               	skipnc
  3316     0CFA  0AF4               	incf	UART_SendString@str+1,f
  3317     0CFB  3000               	movlw	0
  3318     0CFC  07F4               	addwf	UART_SendString@str+1,f
  3319     0CFD                     l2309:
  3320                           
  3321                           ;../MCAL/UART/UART_interface.c: 44:     while (*str)
  3322     0CFD  0874               	movf	UART_SendString@str+1,w
  3323     0CFE  1283               	bcf	3,5	;RP0=0, select bank0
  3324     0CFF  1303               	bcf	3,6	;RP1=0, select bank0
  3325     0D00  00FF               	movwf	btemp1
  3326     0D01  0873               	movf	UART_SendString@str,w
  3327     0D02  0084               	movwf	4
  3328     0D03  120A  158A  2000  120A  158A  	fcall	stringtab
  3329     0D08  3A00               	xorlw	0
  3330     0D09  1D03               	skipz
  3331     0D0A  2D0C               	goto	u1781
  3332     0D0B  2D0D               	goto	u1780
  3333     0D0C                     u1781:
  3334     0D0C  2CE9               	goto	l2305
  3335     0D0D                     u1780:
  3336     0D0D                     l37:
  3337     0D0D  0008               	return
  3338     0D0E                     __end_of_UART_SendString:
  3339                           
  3340                           	psect	text4
  3341     0C48                     __ptext4:	
  3342 ;; *************** function _UART_SendChar *****************
  3343 ;; Defined at:
  3344 ;;		line 36 in file "../MCAL/UART/UART_interface.c"
  3345 ;; Parameters:    Size  Location     Type
  3346 ;;  data            1    wreg     unsigned char 
  3347 ;; Auto vars:     Size  Location     Type
  3348 ;;  data            1    2[COMMON] unsigned char 
  3349 ;; Return value:  Size  Location     Type
  3350 ;;                  1    wreg      void 
  3351 ;; Registers used:
  3352 ;;		wreg
  3353 ;; Tracked objects:
  3354 ;;		On entry : 0/0
  3355 ;;		On exit  : 0/0
  3356 ;;		Unchanged: 0/0
  3357 ;; Data sizes:     COMMON   BANK0   BANK1   BANK3   BANK2
  3358 ;;      Params:         0       0       0       0       0
  3359 ;;      Locals:         1       0       0       0       0
  3360 ;;      Temps:          0       0       0       0       0
  3361 ;;      Totals:         1       0       0       0       0
  3362 ;;Total ram usage:        1 bytes
  3363 ;; Hardware stack levels used: 1
  3364 ;; Hardware stack levels required when called: 1
  3365 ;; This function calls:
  3366 ;;		Nothing
  3367 ;; This function is called by:
  3368 ;;		_UART_SendString
  3369 ;;		_UART_SendUInt
  3370 ;;		_UART_SendLog
  3371 ;;		_BT_Send3Digit
  3372 ;; This function uses a non-reentrant model
  3373 ;;
  3374                           
  3375     0C48                     _UART_SendChar:	
  3376                           ;psect for function _UART_SendChar
  3377                           
  3378                           
  3379                           ;incstack = 0
  3380                           ; Regs used in _UART_SendChar: [wreg]
  3381                           ;UART_SendChar@data stored from wreg
  3382     0C48  00F2               	movwf	UART_SendChar@data
  3383     0C49                     l2219:
  3384     0C49                     l28:	
  3385                           ;../MCAL/UART/UART_interface.c: 36: void UART_SendChar(u8 data);../MCAL/UART/UART_interf
      +                          ace.c: 37: {;../MCAL/UART/UART_interface.c: 38:     while (!TXSTAbits.TRMT);
  3386                           
  3387     0C49  1683               	bsf	3,5	;RP0=1, select bank1
  3388     0C4A  1303               	bcf	3,6	;RP1=0, select bank1
  3389     0C4B  1C98               	btfss	24,1	;volatile
  3390     0C4C  2C4E               	goto	u1551
  3391     0C4D  2C4F               	goto	u1550
  3392     0C4E                     u1551:
  3393     0C4E  2C49               	goto	l28
  3394     0C4F                     u1550:
  3395     0C4F                     l2221:
  3396                           
  3397                           ;../MCAL/UART/UART_interface.c: 39:     TXREG = data;
  3398     0C4F  0872               	movf	UART_SendChar@data,w
  3399     0C50  1283               	bcf	3,5	;RP0=0, select bank0
  3400     0C51  1303               	bcf	3,6	;RP1=0, select bank0
  3401     0C52  0099               	movwf	25	;volatile
  3402     0C53                     l31:
  3403     0C53  0008               	return
  3404     0C54                     __end_of_UART_SendChar:
  3405                           
  3406                           	psect	text5
  3407     0C61                     __ptext5:	
  3408 ;; *************** function _UART_ReceiveChar *****************
  3409 ;; Defined at:
  3410 ;;		line 70 in file "../MCAL/UART/UART_interface.c"
  3411 ;; Parameters:    Size  Location     Type
  3412 ;;		None
  3413 ;; Auto vars:     Size  Location     Type
  3414 ;;		None
  3415 ;; Return value:  Size  Location     Type
  3416 ;;                  1    wreg      unsigned char 
  3417 ;; Registers used:
  3418 ;;		wreg, status,2, status,0, pclath, cstack
  3419 ;; Tracked objects:
  3420 ;;		On entry : 0/0
  3421 ;;		On exit  : 0/0
  3422 ;;		Unchanged: 0/0
  3423 ;; Data sizes:     COMMON   BANK0   BANK1   BANK3   BANK2
  3424 ;;      Params:         0       0       0       0       0
  3425 ;;      Locals:         0       0       0       0       0
  3426 ;;      Temps:          0       0       0       0       0
  3427 ;;      Totals:         0       0       0       0       0
  3428 ;;Total ram usage:        0 bytes
  3429 ;; Hardware stack levels used: 1
  3430 ;; Hardware stack levels required when called: 2
  3431 ;; This function calls:
  3432 ;;		_UART_ClearErrors
  3433 ;; This function is called by:
  3434 ;;		_main
  3435 ;; This function uses a non-reentrant model
  3436 ;;
  3437                           
  3438     0C61                     _UART_ReceiveChar:	
  3439                           ;psect for function _UART_ReceiveChar
  3440                           
  3441     0C61                     l2391:	
  3442                           ;incstack = 0
  3443                           ; Regs used in _UART_ReceiveChar: [wreg+status,2+status,0+pclath+cstack]
  3444                           
  3445                           
  3446                           ;../MCAL/UART/UART_interface.c: 72:     UART_ClearErrors();
  3447     0C61  120A  158A  246E  120A  158A  	fcall	_UART_ClearErrors
  3448     0C66                     l53:	
  3449                           ;../MCAL/UART/UART_interface.c: 73:     while (!PIR1bits.RCIF);
  3450                           
  3451     0C66  1283               	bcf	3,5	;RP0=0, select bank0
  3452     0C67  1303               	bcf	3,6	;RP1=0, select bank0
  3453     0C68  1E8C               	btfss	12,5	;volatile
  3454     0C69  2C6B               	goto	u1881
  3455     0C6A  2C6C               	goto	u1880
  3456     0C6B                     u1881:
  3457     0C6B  2C66               	goto	l53
  3458     0C6C                     u1880:
  3459     0C6C                     l2393:
  3460                           
  3461                           ;../MCAL/UART/UART_interface.c: 74:     return RCREG;
  3462     0C6C  081A               	movf	26,w	;volatile
  3463     0C6D                     l56:
  3464     0C6D  0008               	return
  3465     0C6E                     __end_of_UART_ReceiveChar:
  3466                           
  3467                           	psect	text6
  3468     0C8D                     __ptext6:	
  3469 ;; *************** function _UART_Init *****************
  3470 ;; Defined at:
  3471 ;;		line 5 in file "../MCAL/UART/UART_interface.c"
  3472 ;; Parameters:    Size  Location     Type
  3473 ;;  baud_rate       4    3[COMMON] unsigned long 
  3474 ;; Auto vars:     Size  Location     Type
  3475 ;;  dummy           1    7[COMMON] volatile unsigned char 
  3476 ;; Return value:  Size  Location     Type
  3477 ;;                  1    wreg      void 
  3478 ;; Registers used:
  3479 ;;		wreg, status,2, status,0, pclath, cstack
  3480 ;; Tracked objects:
  3481 ;;		On entry : 0/0
  3482 ;;		On exit  : 0/0
  3483 ;;		Unchanged: 0/0
  3484 ;; Data sizes:     COMMON   BANK0   BANK1   BANK3   BANK2
  3485 ;;      Params:         4       0       0       0       0
  3486 ;;      Locals:         1       0       0       0       0
  3487 ;;      Temps:          0       0       0       0       0
  3488 ;;      Totals:         5       0       0       0       0
  3489 ;;Total ram usage:        5 bytes
  3490 ;; Hardware stack levels used: 1
  3491 ;; Hardware stack levels required when called: 2
  3492 ;; This function calls:
  3493 ;;		_UART_ClearErrors
  3494 ;; This function is called by:
  3495 ;;		_main
  3496 ;;		_BT_Init
  3497 ;; This function uses a non-reentrant model
  3498 ;;
  3499                           
  3500     0C8D                     _UART_Init:	
  3501                           ;psect for function _UART_Init
  3502                           
  3503     0C8D                     l2377:	
  3504                           ;incstack = 0
  3505                           ; Regs used in _UART_Init: [wreg+status,2+status,0+pclath+cstack]
  3506                           
  3507                           
  3508                           ;../MCAL/UART/UART_interface.c: 5: void UART_Init(u32 baud_rate);../MCAL/UART/UART_inter
      +                          face.c: 6: {;../MCAL/UART/UART_interface.c: 7:     SPBRG = 129;
  3509     0C8D  3081               	movlw	129
  3510     0C8E  1683               	bsf	3,5	;RP0=1, select bank1
  3511     0C8F  1303               	bcf	3,6	;RP1=0, select bank1
  3512     0C90  0099               	movwf	25	;volatile
  3513                           
  3514                           ;../MCAL/UART/UART_interface.c: 9:     TXSTAbits.BRGH = 1;
  3515     0C91  1518               	bsf	24,2	;volatile
  3516                           
  3517                           ;../MCAL/UART/UART_interface.c: 10:     TXSTAbits.SYNC = 0;
  3518     0C92  1218               	bcf	24,4	;volatile
  3519                           
  3520                           ;../MCAL/UART/UART_interface.c: 11:     TXSTAbits.TXEN = 1;
  3521     0C93  1698               	bsf	24,5	;volatile
  3522                           
  3523                           ;../MCAL/UART/UART_interface.c: 13:     TRISCbits.TRISC6 = 0;
  3524     0C94  1307               	bcf	7,6	;volatile
  3525                           
  3526                           ;../MCAL/UART/UART_interface.c: 14:     TRISCbits.TRISC7 = 1;
  3527     0C95  1787               	bsf	7,7	;volatile
  3528                           
  3529                           ;../MCAL/UART/UART_interface.c: 16:     RCSTAbits.SPEN = 1;
  3530     0C96  1283               	bcf	3,5	;RP0=0, select bank0
  3531     0C97  1303               	bcf	3,6	;RP1=0, select bank0
  3532     0C98  1798               	bsf	24,7	;volatile
  3533                           
  3534                           ;../MCAL/UART/UART_interface.c: 17:     RCSTAbits.CREN = 1;
  3535     0C99  1618               	bsf	24,4	;volatile
  3536     0C9A                     l2379:
  3537                           
  3538                           ;../MCAL/UART/UART_interface.c: 19:     UART_ClearErrors();
  3539     0C9A  120A  158A  246E  120A  158A  	fcall	_UART_ClearErrors
  3540     0C9F                     l2381:
  3541                           
  3542                           ;../MCAL/UART/UART_interface.c: 20:     if (PIR1bits.RCIF) { volatile u8 dummy = RCREG; 
      +                          }
  3543     0C9F  1283               	bcf	3,5	;RP0=0, select bank0
  3544     0CA0  1303               	bcf	3,6	;RP1=0, select bank0
  3545     0CA1  1E8C               	btfss	12,5	;volatile
  3546     0CA2  2CA4               	goto	u1871
  3547     0CA3  2CA5               	goto	u1870
  3548     0CA4                     u1871:
  3549     0CA4  2CA7               	goto	l20
  3550     0CA5                     u1870:
  3551     0CA5                     l2383:
  3552     0CA5  081A               	movf	26,w	;volatile
  3553     0CA6  00F7               	movwf	UART_Init@dummy	;volatile
  3554     0CA7                     l20:
  3555     0CA7  0008               	return
  3556     0CA8                     __end_of_UART_Init:
  3557                           
  3558                           	psect	text7
  3559     0C3C                     __ptext7:	
  3560 ;; *************** function _UART_DataAvailable *****************
  3561 ;; Defined at:
  3562 ;;		line 64 in file "../MCAL/UART/UART_interface.c"
  3563 ;; Parameters:    Size  Location     Type
  3564 ;;		None
  3565 ;; Auto vars:     Size  Location     Type
  3566 ;;		None
  3567 ;; Return value:  Size  Location     Type
  3568 ;;                  1    wreg      unsigned char 
  3569 ;; Registers used:
  3570 ;;		wreg, status,2, status,0, pclath, cstack
  3571 ;; Tracked objects:
  3572 ;;		On entry : 0/0
  3573 ;;		On exit  : 0/0
  3574 ;;		Unchanged: 0/0
  3575 ;; Data sizes:     COMMON   BANK0   BANK1   BANK3   BANK2
  3576 ;;      Params:         0       0       0       0       0
  3577 ;;      Locals:         0       0       0       0       0
  3578 ;;      Temps:          1       0       0       0       0
  3579 ;;      Totals:         1       0       0       0       0
  3580 ;;Total ram usage:        1 bytes
  3581 ;; Hardware stack levels used: 1
  3582 ;; Hardware stack levels required when called: 2
  3583 ;; This function calls:
  3584 ;;		_UART_ClearErrors
  3585 ;; This function is called by:
  3586 ;;		_main
  3587 ;; This function uses a non-reentrant model
  3588 ;;
  3589                           
  3590     0C3C                     _UART_DataAvailable:	
  3591                           ;psect for function _UART_DataAvailable
  3592                           
  3593     0C3C                     l2385:	
  3594                           ;incstack = 0
  3595                           ; Regs used in _UART_DataAvailable: [wreg+status,2+status,0+pclath+cstack]
  3596                           
  3597                           
  3598                           ;../MCAL/UART/UART_interface.c: 66:     UART_ClearErrors();
  3599     0C3C  120A  158A  246E  120A  158A  	fcall	_UART_ClearErrors
  3600     0C41                     l2387:
  3601                           
  3602                           ;../MCAL/UART/UART_interface.c: 67:     return PIR1bits.RCIF;
  3603     0C41  1283               	bcf	3,5	;RP0=0, select bank0
  3604     0C42  1303               	bcf	3,6	;RP1=0, select bank0
  3605     0C43  0E0C               	swapf	12,w	;volatile
  3606     0C44  00F3               	movwf	??_UART_DataAvailable
  3607     0C45  0C73               	rrf	??_UART_DataAvailable,w
  3608     0C46  3901               	andlw	1
  3609     0C47                     l50:
  3610     0C47  0008               	return
  3611     0C48                     __end_of_UART_DataAvailable:
  3612                           
  3613                           	psect	text8
  3614     0C6E                     __ptext8:	
  3615 ;; *************** function _UART_ClearErrors *****************
  3616 ;; Defined at:
  3617 ;;		line 23 in file "../MCAL/UART/UART_interface.c"
  3618 ;; Parameters:    Size  Location     Type
  3619 ;;		None
  3620 ;; Auto vars:     Size  Location     Type
  3621 ;;  dummy           1    2[COMMON] volatile unsigned char 
  3622 ;; Return value:  Size  Location     Type
  3623 ;;                  1    wreg      void 
  3624 ;; Registers used:
  3625 ;;		wreg
  3626 ;; Tracked objects:
  3627 ;;		On entry : 0/0
  3628 ;;		On exit  : 0/0
  3629 ;;		Unchanged: 0/0
  3630 ;; Data sizes:     COMMON   BANK0   BANK1   BANK3   BANK2
  3631 ;;      Params:         0       0       0       0       0
  3632 ;;      Locals:         1       0       0       0       0
  3633 ;;      Temps:          0       0       0       0       0
  3634 ;;      Totals:         1       0       0       0       0
  3635 ;;Total ram usage:        1 bytes
  3636 ;; Hardware stack levels used: 1
  3637 ;; Hardware stack levels required when called: 1
  3638 ;; This function calls:
  3639 ;;		Nothing
  3640 ;; This function is called by:
  3641 ;;		_UART_Init
  3642 ;;		_UART_DataAvailable
  3643 ;;		_UART_ReceiveChar
  3644 ;; This function uses a non-reentrant model
  3645 ;;
  3646                           
  3647     0C6E                     _UART_ClearErrors:	
  3648                           ;psect for function _UART_ClearErrors
  3649                           
  3650     0C6E                     l2297:	
  3651                           ;incstack = 0
  3652                           ; Regs used in _UART_ClearErrors: [wreg]
  3653                           
  3654                           
  3655                           ;../MCAL/UART/UART_interface.c: 25:     if (RCSTAbits.OERR)
  3656     0C6E  1283               	bcf	3,5	;RP0=0, select bank0
  3657     0C6F  1303               	bcf	3,6	;RP1=0, select bank0
  3658     0C70  1C98               	btfss	24,1	;volatile
  3659     0C71  2C73               	goto	u1761
  3660     0C72  2C74               	goto	u1760
  3661     0C73                     u1761:
  3662     0C73  2C76               	goto	l23
  3663     0C74                     u1760:
  3664     0C74                     l2299:
  3665                           
  3666                           ;../MCAL/UART/UART_interface.c: 26:     {;../MCAL/UART/UART_interface.c: 27:         RCS
      +                          TAbits.CREN = 0;
  3667     0C74  1218               	bcf	24,4	;volatile
  3668                           
  3669                           ;../MCAL/UART/UART_interface.c: 28:         RCSTAbits.CREN = 1;
  3670     0C75  1618               	bsf	24,4	;volatile
  3671     0C76                     l23:	
  3672                           ;../MCAL/UART/UART_interface.c: 29:     }
  3673                           
  3674                           
  3675                           ;../MCAL/UART/UART_interface.c: 30:     if (RCSTAbits.FERR)
  3676     0C76  1D18               	btfss	24,2	;volatile
  3677     0C77  2C79               	goto	u1771
  3678     0C78  2C7A               	goto	u1770
  3679     0C79                     u1771:
  3680     0C79  2C7C               	goto	l25
  3681     0C7A                     u1770:
  3682     0C7A                     l2301:
  3683                           
  3684                           ;../MCAL/UART/UART_interface.c: 31:     {;../MCAL/UART/UART_interface.c: 32:         vol
      +                          atile u8 dummy = RCREG;
  3685     0C7A  081A               	movf	26,w	;volatile
  3686     0C7B  00F2               	movwf	UART_ClearErrors@dummy	;volatile
  3687     0C7C                     l25:
  3688     0C7C  0008               	return
  3689     0C7D                     __end_of_UART_ClearErrors:
  3690                           
  3691                           	psect	text9
  3692     0CA8                     __ptext9:	
  3693 ;; *************** function _SR04_Init *****************
  3694 ;; Defined at:
  3695 ;;		line 20 in file "../HAL/HC-SR04/SR04.c"
  3696 ;; Parameters:    Size  Location     Type
  3697 ;;		None
  3698 ;; Auto vars:     Size  Location     Type
  3699 ;;		None
  3700 ;; Return value:  Size  Location     Type
  3701 ;;                  1    wreg      void 
  3702 ;; Registers used:
  3703 ;;		None
  3704 ;; Tracked objects:
  3705 ;;		On entry : 0/0
  3706 ;;		On exit  : 0/0
  3707 ;;		Unchanged: 0/0
  3708 ;; Data sizes:     COMMON   BANK0   BANK1   BANK3   BANK2
  3709 ;;      Params:         0       0       0       0       0
  3710 ;;      Locals:         0       0       0       0       0
  3711 ;;      Temps:          0       0       0       0       0
  3712 ;;      Totals:         0       0       0       0       0
  3713 ;;Total ram usage:        0 bytes
  3714 ;; Hardware stack levels used: 1
  3715 ;; Hardware stack levels required when called: 1
  3716 ;; This function calls:
  3717 ;;		Nothing
  3718 ;; This function is called by:
  3719 ;;		_main
  3720 ;; This function uses a non-reentrant model
  3721 ;;
  3722                           
  3723     0CA8                     _SR04_Init:	
  3724                           ;psect for function _SR04_Init
  3725                           
  3726     0CA8                     l2475:	
  3727                           ;incstack = 0
  3728                           ; Regs used in _SR04_Init: []
  3729                           
  3730                           
  3731                           ;../HAL/HC-SR04/SR04.c: 21:     ADCON1 = 0x07;
  3732     0CA8  3007               	movlw	7
  3733     0CA9  1683               	bsf	3,5	;RP0=1, select bank1
  3734     0CAA  1303               	bcf	3,6	;RP1=0, select bank1
  3735     0CAB  009F               	movwf	31	;volatile
  3736                           
  3737                           ;../HAL/HC-SR04/SR04.c: 24:     TRISDbits.TRISD0 = 0; PORTDbits.RD0 = 0;
  3738     0CAC  1008               	bcf	8,0	;volatile
  3739     0CAD  1283               	bcf	3,5	;RP0=0, select bank0
  3740     0CAE  1303               	bcf	3,6	;RP1=0, select bank0
  3741     0CAF  1008               	bcf	8,0	;volatile
  3742                           
  3743                           ;../HAL/HC-SR04/SR04.c: 25:     TRISDbits.TRISD1 = 1;
  3744     0CB0  1683               	bsf	3,5	;RP0=1, select bank1
  3745     0CB1  1303               	bcf	3,6	;RP1=0, select bank1
  3746     0CB2  1488               	bsf	8,1	;volatile
  3747                           
  3748                           ;../HAL/HC-SR04/SR04.c: 28:     TRISBbits.TRISB1 = 0; PORTBbits.RB1 = 0;
  3749     0CB3  1086               	bcf	6,1	;volatile
  3750     0CB4  1283               	bcf	3,5	;RP0=0, select bank0
  3751     0CB5  1303               	bcf	3,6	;RP1=0, select bank0
  3752     0CB6  1086               	bcf	6,1	;volatile
  3753                           
  3754                           ;../HAL/HC-SR04/SR04.c: 29:     TRISBbits.TRISB2 = 1;
  3755     0CB7  1683               	bsf	3,5	;RP0=1, select bank1
  3756     0CB8  1303               	bcf	3,6	;RP1=0, select bank1
  3757     0CB9  1506               	bsf	6,2	;volatile
  3758                           
  3759                           ;../HAL/HC-SR04/SR04.c: 32:     TRISBbits.TRISB3 = 0; PORTBbits.RB3 = 0;
  3760     0CBA  1186               	bcf	6,3	;volatile
  3761     0CBB  1283               	bcf	3,5	;RP0=0, select bank0
  3762     0CBC  1303               	bcf	3,6	;RP1=0, select bank0
  3763     0CBD  1186               	bcf	6,3	;volatile
  3764                           
  3765                           ;../HAL/HC-SR04/SR04.c: 33:     TRISBbits.TRISB4 = 1;
  3766     0CBE  1683               	bsf	3,5	;RP0=1, select bank1
  3767     0CBF  1303               	bcf	3,6	;RP1=0, select bank1
  3768     0CC0  1606               	bsf	6,4	;volatile
  3769                           
  3770                           ;../HAL/HC-SR04/SR04.c: 35:     OPTION_REGbits.nRBPU = 1;
  3771     0CC1  1781               	bsf	1,7	;volatile
  3772                           
  3773                           ;../HAL/HC-SR04/SR04.c: 36:     T1CONbits.TMR1ON = 0;
  3774     0CC2  1283               	bcf	3,5	;RP0=0, select bank0
  3775     0CC3  1303               	bcf	3,6	;RP1=0, select bank0
  3776     0CC4  1010               	bcf	16,0	;volatile
  3777     0CC5                     l457:
  3778     0CC5  0008               	return
  3779     0CC6                     __end_of_SR04_Init:
  3780                           
  3781                           	psect	text10
  3782     069B                     __ptext10:	
  3783 ;; *************** function _SR04_GetDistance *****************
  3784 ;; Defined at:
  3785 ;;		line 39 in file "../HAL/HC-SR04/SR04.c"
  3786 ;; Parameters:    Size  Location     Type
  3787 ;;  sensor_id       1    wreg     unsigned char 
  3788 ;; Auto vars:     Size  Location     Type
  3789 ;;  sensor_id       1    9[BANK0 ] unsigned char 
  3790 ;;  timeout         2    7[BANK0 ] unsigned short 
  3791 ;;  ticks           2    5[BANK0 ] unsigned short 
  3792 ;; Return value:  Size  Location     Type
  3793 ;;                  2    0[BANK0 ] unsigned short 
  3794 ;; Registers used:
  3795 ;;		wreg, status,2, status,0, pclath, cstack
  3796 ;; Tracked objects:
  3797 ;;		On entry : 0/0
  3798 ;;		On exit  : 0/0
  3799 ;;		Unchanged: 0/0
  3800 ;; Data sizes:     COMMON   BANK0   BANK1   BANK3   BANK2
  3801 ;;      Params:         0       2       0       0       0
  3802 ;;      Locals:         0       5       0       0       0
  3803 ;;      Temps:          0       3       0       0       0
  3804 ;;      Totals:         0      10       0       0       0
  3805 ;;Total ram usage:       10 bytes
  3806 ;; Hardware stack levels used: 1
  3807 ;; Hardware stack levels required when called: 2
  3808 ;; This function calls:
  3809 ;;		_TMR1_Start@SR04$F834
  3810 ;;		_TMR1_Stop@SR04$F835
  3811 ;;		___lwdiv
  3812 ;; This function is called by:
  3813 ;;		_main
  3814 ;; This function uses a non-reentrant model
  3815 ;;
  3816                           
  3817     069B                     _SR04_GetDistance:	
  3818                           ;psect for function _SR04_GetDistance
  3819                           
  3820                           
  3821                           ;incstack = 0
  3822                           ; Regs used in _SR04_GetDistance: [wreg+status,2+status,0+pclath+cstack]
  3823                           ;SR04_GetDistance@sensor_id stored from wreg
  3824     069B  1283               	bcf	3,5	;RP0=0, select bank0
  3825     069C  1303               	bcf	3,6	;RP1=0, select bank0
  3826     069D  00A9               	movwf	SR04_GetDistance@sensor_id
  3827     069E                     l3187:
  3828                           
  3829                           ;../HAL/HC-SR04/SR04.c: 40:     u16 timeout = 0;
  3830     069E  01A7               	clrf	SR04_GetDistance@timeout
  3831     069F  01A8               	clrf	SR04_GetDistance@timeout+1
  3832     06A0                     l3189:
  3833                           
  3834                           ;../HAL/HC-SR04/SR04.c: 43:     if (sensor_id == 0) { PORTDbits.RD0 = 1; _delay((unsigne
      +                          d long)((10)*(20000000UL/4000000.0))); PORTDbits.RD0 = 0; }
  3835     06A0  0829               	movf	SR04_GetDistance@sensor_id,w
  3836     06A1  1D03               	btfss	3,2
  3837     06A2  2EA4               	goto	u2811
  3838     06A3  2EA5               	goto	u2810
  3839     06A4                     u2811:
  3840     06A4  2EB1               	goto	l3197
  3841     06A5                     u2810:
  3842     06A5                     l3191:
  3843     06A5  1408               	bsf	8,0	;volatile
  3844     06A6                     l3193:
  3845     06A6  300F               	movlw	15
  3846     06A7  1283               	bcf	3,5	;RP0=0, select bank0
  3847     06A8  1303               	bcf	3,6	;RP1=0, select bank0
  3848     06A9  00A2               	movwf	??_SR04_GetDistance
  3849     06AA                     u3447:
  3850     06AA  0BA2               	decfsz	??_SR04_GetDistance,f
  3851     06AB  2EAA               	goto	u3447
  3852     06AC  2EAD               	nop2
  3853     06AD                     l3195:
  3854     06AD  1283               	bcf	3,5	;RP0=0, select bank0
  3855     06AE  1303               	bcf	3,6	;RP1=0, select bank0
  3856     06AF  1008               	bcf	8,0	;volatile
  3857     06B0  2F07               	goto	l467
  3858     06B1                     l3197:
  3859     06B1  0329               	decf	SR04_GetDistance@sensor_id,w
  3860     06B2  1D03               	btfss	3,2
  3861     06B3  2EB5               	goto	u2821
  3862     06B4  2EB6               	goto	u2820
  3863     06B5                     u2821:
  3864     06B5  2EC2               	goto	l3205
  3865     06B6                     u2820:
  3866     06B6                     l3199:
  3867     06B6  1486               	bsf	6,1	;volatile
  3868     06B7                     l3201:
  3869     06B7  300F               	movlw	15
  3870     06B8  1283               	bcf	3,5	;RP0=0, select bank0
  3871     06B9  1303               	bcf	3,6	;RP1=0, select bank0
  3872     06BA  00A2               	movwf	??_SR04_GetDistance
  3873     06BB                     u3457:
  3874     06BB  0BA2               	decfsz	??_SR04_GetDistance,f
  3875     06BC  2EBB               	goto	u3457
  3876     06BD  2EBE               	nop2
  3877     06BE                     l3203:
  3878     06BE  1283               	bcf	3,5	;RP0=0, select bank0
  3879     06BF  1303               	bcf	3,6	;RP1=0, select bank0
  3880     06C0  1086               	bcf	6,1	;volatile
  3881     06C1  2F07               	goto	l467
  3882     06C2                     l3205:
  3883     06C2  3002               	movlw	2
  3884     06C3  0629               	xorwf	SR04_GetDistance@sensor_id,w
  3885     06C4  1D03               	btfss	3,2
  3886     06C5  2EC7               	goto	u2831
  3887     06C6  2EC8               	goto	u2830
  3888     06C7                     u2831:
  3889     06C7  2ED4               	goto	l3213
  3890     06C8                     u2830:
  3891     06C8                     l3207:
  3892     06C8  1586               	bsf	6,3	;volatile
  3893     06C9                     l3209:
  3894     06C9  300F               	movlw	15
  3895     06CA  1283               	bcf	3,5	;RP0=0, select bank0
  3896     06CB  1303               	bcf	3,6	;RP1=0, select bank0
  3897     06CC  00A2               	movwf	??_SR04_GetDistance
  3898     06CD                     u3467:
  3899     06CD  0BA2               	decfsz	??_SR04_GetDistance,f
  3900     06CE  2ECD               	goto	u3467
  3901     06CF  2ED0               	nop2
  3902     06D0                     l3211:
  3903     06D0  1283               	bcf	3,5	;RP0=0, select bank0
  3904     06D1  1303               	bcf	3,6	;RP1=0, select bank0
  3905     06D2  1186               	bcf	6,3	;volatile
  3906     06D3  2F07               	goto	l467
  3907     06D4                     l3213:
  3908     06D4  30E7               	movlw	231
  3909     06D5  00A0               	movwf	?_SR04_GetDistance
  3910     06D6  3003               	movlw	3
  3911     06D7  00A1               	movwf	?_SR04_GetDistance+1
  3912     06D8  2F8F               	goto	l466
  3913     06D9                     l3217:
  3914                           
  3915                           ;../HAL/HC-SR04/SR04.c: 49:         if (sensor_id == 0 && PORTDbits.RD1) break;
  3916     06D9  0829               	movf	SR04_GetDistance@sensor_id,w
  3917     06DA  1D03               	btfss	3,2
  3918     06DB  2EDD               	goto	u2841
  3919     06DC  2EDE               	goto	u2840
  3920     06DD                     u2841:
  3921     06DD  2EE3               	goto	l3223
  3922     06DE                     u2840:
  3923     06DE                     l3219:
  3924     06DE  1C88               	btfss	8,1	;volatile
  3925     06DF  2EE1               	goto	u2851
  3926     06E0  2EE2               	goto	u2850
  3927     06E1                     u2851:
  3928     06E1  2EE3               	goto	l3223
  3929     06E2                     u2850:
  3930     06E2  2F10               	goto	l3237
  3931     06E3                     l3223:
  3932                           
  3933                           ;../HAL/HC-SR04/SR04.c: 50:         if (sensor_id == 1 && PORTBbits.RB2) break;
  3934     06E3  0329               	decf	SR04_GetDistance@sensor_id,w
  3935     06E4  1D03               	btfss	3,2
  3936     06E5  2EE7               	goto	u2861
  3937     06E6  2EE8               	goto	u2860
  3938     06E7                     u2861:
  3939     06E7  2EED               	goto	l3229
  3940     06E8                     u2860:
  3941     06E8                     l3225:
  3942     06E8  1D06               	btfss	6,2	;volatile
  3943     06E9  2EEB               	goto	u2871
  3944     06EA  2EEC               	goto	u2870
  3945     06EB                     u2871:
  3946     06EB  2EED               	goto	l3229
  3947     06EC                     u2870:
  3948     06EC  2F10               	goto	l3237
  3949     06ED                     l3229:
  3950                           
  3951                           ;../HAL/HC-SR04/SR04.c: 51:         if (sensor_id == 2 && PORTBbits.RB4) break;
  3952     06ED  3002               	movlw	2
  3953     06EE  0629               	xorwf	SR04_GetDistance@sensor_id,w
  3954     06EF  1D03               	btfss	3,2
  3955     06F0  2EF2               	goto	u2881
  3956     06F1  2EF3               	goto	u2880
  3957     06F2                     u2881:
  3958     06F2  2EF8               	goto	l3235
  3959     06F3                     u2880:
  3960     06F3                     l3231:
  3961     06F3  1E06               	btfss	6,4	;volatile
  3962     06F4  2EF6               	goto	u2891
  3963     06F5  2EF7               	goto	u2890
  3964     06F6                     u2891:
  3965     06F6  2EF8               	goto	l3235
  3966     06F7                     u2890:
  3967     06F7  2F10               	goto	l3237
  3968     06F8                     l3235:
  3969                           
  3970                           ;../HAL/HC-SR04/SR04.c: 52:         _delay((unsigned long)((10)*(20000000UL/4000000.0)))
      +                          ;
  3971     06F8  300F               	movlw	15
  3972     06F9  1283               	bcf	3,5	;RP0=0, select bank0
  3973     06FA  1303               	bcf	3,6	;RP1=0, select bank0
  3974     06FB  00A2               	movwf	??_SR04_GetDistance
  3975     06FC                     u3477:
  3976     06FC  0BA2               	decfsz	??_SR04_GetDistance,f
  3977     06FD  2EFC               	goto	u3477
  3978     06FE  2EFF               	nop2
  3979                           
  3980                           ;../HAL/HC-SR04/SR04.c: 53:         timeout++;
  3981     06FF  3001               	movlw	1
  3982     0700  1283               	bcf	3,5	;RP0=0, select bank0
  3983     0701  1303               	bcf	3,6	;RP1=0, select bank0
  3984     0702  07A7               	addwf	SR04_GetDistance@timeout,f
  3985     0703  1803               	skipnc
  3986     0704  0AA8               	incf	SR04_GetDistance@timeout+1,f
  3987     0705  3000               	movlw	0
  3988     0706  07A8               	addwf	SR04_GetDistance@timeout+1,f
  3989     0707                     l467:	
  3990                           ;../HAL/HC-SR04/SR04.c: 54:     }
  3991                           
  3992                           
  3993                           ;../HAL/HC-SR04/SR04.c: 48:     while(timeout < 500) {
  3994     0707  3001               	movlw	1
  3995     0708  0228               	subwf	SR04_GetDistance@timeout+1,w
  3996     0709  30F4               	movlw	244
  3997     070A  1903               	skipnz
  3998     070B  0227               	subwf	SR04_GetDistance@timeout,w
  3999     070C  1C03               	skipc
  4000     070D  2F0F               	goto	u2901
  4001     070E  2F10               	goto	u2900
  4002     070F                     u2901:
  4003     070F  2ED9               	goto	l3217
  4004     0710                     u2900:
  4005     0710                     l3237:
  4006                           
  4007                           ;../HAL/HC-SR04/SR04.c: 56:     if (timeout >= 500) return 999U;
  4008     0710  3001               	movlw	1
  4009     0711  0228               	subwf	SR04_GetDistance@timeout+1,w
  4010     0712  30F4               	movlw	244
  4011     0713  1903               	skipnz
  4012     0714  0227               	subwf	SR04_GetDistance@timeout,w
  4013     0715  1C03               	skipc
  4014     0716  2F18               	goto	u2911
  4015     0717  2F19               	goto	u2910
  4016     0718                     u2911:
  4017     0718  2F1A               	goto	l3243
  4018     0719                     u2910:
  4019     0719  2ED4               	goto	l3213
  4020     071A                     l3243:
  4021                           
  4022                           ;../HAL/HC-SR04/SR04.c: 58:     TMR1_Start();
  4023     071A  120A  118A  27F6  120A  118A  	fcall	_TMR1_Start@SR04$F834
  4024                           
  4025                           ;../HAL/HC-SR04/SR04.c: 60:     while(!PIR1bits.TMR1IF) {
  4026     071F  2F3F               	goto	l474
  4027     0720                     l3245:
  4028                           
  4029                           ;../HAL/HC-SR04/SR04.c: 61:         if (sensor_id == 0 && !PORTDbits.RD1) break;
  4030     0720  0829               	movf	SR04_GetDistance@sensor_id,w
  4031     0721  1D03               	btfss	3,2
  4032     0722  2F24               	goto	u2921
  4033     0723  2F25               	goto	u2920
  4034     0724                     u2921:
  4035     0724  2F2A               	goto	l3251
  4036     0725                     u2920:
  4037     0725                     l3247:
  4038     0725  1888               	btfsc	8,1	;volatile
  4039     0726  2F28               	goto	u2931
  4040     0727  2F29               	goto	u2930
  4041     0728                     u2931:
  4042     0728  2F2A               	goto	l3251
  4043     0729                     u2930:
  4044     0729  2F45               	goto	l3263
  4045     072A                     l3251:
  4046                           
  4047                           ;../HAL/HC-SR04/SR04.c: 62:         if (sensor_id == 1 && !PORTBbits.RB2) break;
  4048     072A  0329               	decf	SR04_GetDistance@sensor_id,w
  4049     072B  1D03               	btfss	3,2
  4050     072C  2F2E               	goto	u2941
  4051     072D  2F2F               	goto	u2940
  4052     072E                     u2941:
  4053     072E  2F34               	goto	l3257
  4054     072F                     u2940:
  4055     072F                     l3253:
  4056     072F  1906               	btfsc	6,2	;volatile
  4057     0730  2F32               	goto	u2951
  4058     0731  2F33               	goto	u2950
  4059     0732                     u2951:
  4060     0732  2F34               	goto	l3257
  4061     0733                     u2950:
  4062     0733  2F45               	goto	l3263
  4063     0734                     l3257:
  4064                           
  4065                           ;../HAL/HC-SR04/SR04.c: 63:         if (sensor_id == 2 && !PORTBbits.RB4) break;
  4066     0734  3002               	movlw	2
  4067     0735  0629               	xorwf	SR04_GetDistance@sensor_id,w
  4068     0736  1D03               	btfss	3,2
  4069     0737  2F39               	goto	u2961
  4070     0738  2F3A               	goto	u2960
  4071     0739                     u2961:
  4072     0739  2F3F               	goto	l474
  4073     073A                     u2960:
  4074     073A                     l3259:
  4075     073A  1A06               	btfsc	6,4	;volatile
  4076     073B  2F3D               	goto	u2971
  4077     073C  2F3E               	goto	u2970
  4078     073D                     u2971:
  4079     073D  2F3F               	goto	l474
  4080     073E                     u2970:
  4081     073E  2F45               	goto	l3263
  4082     073F                     l474:	
  4083                           ;../HAL/HC-SR04/SR04.c: 64:     }
  4084                           
  4085                           
  4086                           ;../HAL/HC-SR04/SR04.c: 60:     while(!PIR1bits.TMR1IF) {
  4087     073F  1283               	bcf	3,5	;RP0=0, select bank0
  4088     0740  1303               	bcf	3,6	;RP1=0, select bank0
  4089     0741  1C0C               	btfss	12,0	;volatile
  4090     0742  2F44               	goto	u2981
  4091     0743  2F45               	goto	u2980
  4092     0744                     u2981:
  4093     0744  2F20               	goto	l3245
  4094     0745                     u2980:
  4095     0745                     l3263:
  4096                           
  4097                           ;../HAL/HC-SR04/SR04.c: 66:     ticks = TMR1_Stop();
  4098     0745  120A  118A  24F8  120A  118A  	fcall	_TMR1_Stop@SR04$F835
  4099     074A  0873               	movf	?_TMR1_Stop@SR04$F835+1,w
  4100     074B  1283               	bcf	3,5	;RP0=0, select bank0
  4101     074C  1303               	bcf	3,6	;RP1=0, select bank0
  4102     074D  00A6               	movwf	SR04_GetDistance@ticks+1
  4103     074E  0872               	movf	?_TMR1_Stop@SR04$F835,w
  4104     074F  00A5               	movwf	SR04_GetDistance@ticks
  4105     0750                     l3265:
  4106                           
  4107                           ;../HAL/HC-SR04/SR04.c: 68:     if (PIR1bits.TMR1IF) {
  4108     0750  1C0C               	btfss	12,0	;volatile
  4109     0751  2F53               	goto	u2991
  4110     0752  2F54               	goto	u2990
  4111     0753                     u2991:
  4112     0753  2F6B               	goto	l3273
  4113     0754                     u2990:
  4114     0754                     l3267:
  4115                           
  4116                           ;../HAL/HC-SR04/SR04.c: 69:         PIR1bits.TMR1IF = 0;
  4117     0754  100C               	bcf	12,0	;volatile
  4118     0755                     l3269:
  4119                           
  4120                           ;../HAL/HC-SR04/SR04.c: 70:         _delay((unsigned long)((40)*(20000000UL/4000.0)));
  4121     0755  3002               	movlw	2
  4122     0756  1283               	bcf	3,5	;RP0=0, select bank0
  4123     0757  1303               	bcf	3,6	;RP1=0, select bank0
  4124     0758  00A4               	movwf	??_SR04_GetDistance+2
  4125     0759  3004               	movlw	4
  4126     075A  00A3               	movwf	??_SR04_GetDistance+1
  4127     075B  30B9               	movlw	185
  4128     075C  00A2               	movwf	??_SR04_GetDistance
  4129     075D                     u3487:
  4130     075D  0BA2               	decfsz	??_SR04_GetDistance,f
  4131     075E  2F5D               	goto	u3487
  4132     075F  0BA3               	decfsz	??_SR04_GetDistance+1,f
  4133     0760  2F5D               	goto	u3487
  4134     0761  0BA4               	decfsz	??_SR04_GetDistance+2,f
  4135     0762  2F5D               	goto	u3487
  4136     0763  2F64               	nop2
  4137                           
  4138                           ;../HAL/HC-SR04/SR04.c: 71:         return 999U;
  4139     0764  30E7               	movlw	231
  4140     0765  1283               	bcf	3,5	;RP0=0, select bank0
  4141     0766  1303               	bcf	3,6	;RP1=0, select bank0
  4142     0767  00A0               	movwf	?_SR04_GetDistance
  4143     0768  3003               	movlw	3
  4144     0769  00A1               	movwf	?_SR04_GetDistance+1
  4145     076A  2F8F               	goto	l466
  4146     076B                     l3273:
  4147                           
  4148                           ;../HAL/HC-SR04/SR04.c: 74:     _delay((unsigned long)((40)*(20000000UL/4000.0)));
  4149     076B  3002               	movlw	2
  4150     076C  1283               	bcf	3,5	;RP0=0, select bank0
  4151     076D  1303               	bcf	3,6	;RP1=0, select bank0
  4152     076E  00A4               	movwf	??_SR04_GetDistance+2
  4153     076F  3004               	movlw	4
  4154     0770  00A3               	movwf	??_SR04_GetDistance+1
  4155     0771  30B9               	movlw	185
  4156     0772  00A2               	movwf	??_SR04_GetDistance
  4157     0773                     u3497:
  4158     0773  0BA2               	decfsz	??_SR04_GetDistance,f
  4159     0774  2F73               	goto	u3497
  4160     0775  0BA3               	decfsz	??_SR04_GetDistance+1,f
  4161     0776  2F73               	goto	u3497
  4162     0777  0BA4               	decfsz	??_SR04_GetDistance+2,f
  4163     0778  2F73               	goto	u3497
  4164     0779  2F7A               	nop2
  4165     077A                     l3275:
  4166                           
  4167                           ;../HAL/HC-SR04/SR04.c: 75:     return (u16)(ticks / 36U);
  4168     077A  3024               	movlw	36
  4169     077B  00F2               	movwf	___lwdiv@divisor
  4170     077C  3000               	movlw	0
  4171     077D  00F3               	movwf	___lwdiv@divisor+1
  4172     077E  1283               	bcf	3,5	;RP0=0, select bank0
  4173     077F  1303               	bcf	3,6	;RP1=0, select bank0
  4174     0780  0826               	movf	SR04_GetDistance@ticks+1,w
  4175     0781  00F5               	movwf	___lwdiv@dividend+1
  4176     0782  0825               	movf	SR04_GetDistance@ticks,w
  4177     0783  00F4               	movwf	___lwdiv@dividend
  4178     0784  120A  158A  260B  120A  118A  	fcall	___lwdiv
  4179     0789  0873               	movf	?___lwdiv+1,w
  4180     078A  1283               	bcf	3,5	;RP0=0, select bank0
  4181     078B  1303               	bcf	3,6	;RP1=0, select bank0
  4182     078C  00A1               	movwf	?_SR04_GetDistance+1
  4183     078D  0872               	movf	?___lwdiv,w
  4184     078E  00A0               	movwf	?_SR04_GetDistance
  4185     078F                     l466:
  4186     078F  0008               	return
  4187     0790                     __end_of_SR04_GetDistance:
  4188                           
  4189                           	psect	text11
  4190     04F8                     __ptext11:	
  4191 ;; *************** function _TMR1_Stop@SR04$F835 *****************
  4192 ;; Defined at:
  4193 ;;		line 15 in file "../HAL/HC-SR04/SR04.c"
  4194 ;; Parameters:    Size  Location     Type
  4195 ;;		None
  4196 ;; Auto vars:     Size  Location     Type
  4197 ;;		None
  4198 ;; Return value:  Size  Location     Type
  4199 ;;                  2    2[COMMON] unsigned short 
  4200 ;; Registers used:
  4201 ;;		wreg
  4202 ;; Tracked objects:
  4203 ;;		On entry : 0/0
  4204 ;;		On exit  : 0/0
  4205 ;;		Unchanged: 0/0
  4206 ;; Data sizes:     COMMON   BANK0   BANK1   BANK3   BANK2
  4207 ;;      Params:         2       0       0       0       0
  4208 ;;      Locals:         0       0       0       0       0
  4209 ;;      Temps:          0       0       0       0       0
  4210 ;;      Totals:         2       0       0       0       0
  4211 ;;Total ram usage:        2 bytes
  4212 ;; Hardware stack levels used: 1
  4213 ;; Hardware stack levels required when called: 1
  4214 ;; This function calls:
  4215 ;;		Nothing
  4216 ;; This function is called by:
  4217 ;;		_SR04_GetDistance
  4218 ;; This function uses a non-reentrant model
  4219 ;;
  4220                           
  4221     04F8                     _TMR1_Stop@SR04$F835:	
  4222                           ;psect for function _TMR1_Stop@SR04$F835
  4223                           
  4224     04F8                     l2371:	
  4225                           ;incstack = 0
  4226                           ; Regs used in _TMR1_Stop@SR04$F835: [wreg]
  4227                           
  4228                           
  4229                           ;../HAL/HC-SR04/SR04.c: 16:     T1CONbits.TMR1ON = 0;
  4230     04F8  1283               	bcf	3,5	;RP0=0, select bank0
  4231     04F9  1303               	bcf	3,6	;RP1=0, select bank0
  4232     04FA  1010               	bcf	16,0	;volatile
  4233     04FB                     l2373:
  4234                           
  4235                           ;../HAL/HC-SR04/SR04.c: 17:     return (u16)(((u16)TMR1H << 8) | TMR1L);
  4236     04FB  080F               	movf	15,w	;volatile
  4237     04FC  00F3               	movwf	?_TMR1_Stop@SR04$F835+1
  4238     04FD  080E               	movf	14,w	;volatile
  4239     04FE  00F2               	movwf	?_TMR1_Stop@SR04$F835
  4240     04FF                     l454:
  4241     04FF  0008               	return
  4242     0500                     __end_of_TMR1_Stop@SR04$F835:
  4243                           
  4244                           	psect	text12
  4245     07F6                     __ptext12:	
  4246 ;; *************** function _TMR1_Start@SR04$F834 *****************
  4247 ;; Defined at:
  4248 ;;		line 7 in file "../HAL/HC-SR04/SR04.c"
  4249 ;; Parameters:    Size  Location     Type
  4250 ;;		None
  4251 ;; Auto vars:     Size  Location     Type
  4252 ;;		None
  4253 ;; Return value:  Size  Location     Type
  4254 ;;                  1    wreg      void 
  4255 ;; Registers used:
  4256 ;;		status,2
  4257 ;; Tracked objects:
  4258 ;;		On entry : 0/0
  4259 ;;		On exit  : 0/0
  4260 ;;		Unchanged: 0/0
  4261 ;; Data sizes:     COMMON   BANK0   BANK1   BANK3   BANK2
  4262 ;;      Params:         0       0       0       0       0
  4263 ;;      Locals:         0       0       0       0       0
  4264 ;;      Temps:          0       0       0       0       0
  4265 ;;      Totals:         0       0       0       0       0
  4266 ;;Total ram usage:        0 bytes
  4267 ;; Hardware stack levels used: 1
  4268 ;; Hardware stack levels required when called: 1
  4269 ;; This function calls:
  4270 ;;		Nothing
  4271 ;; This function is called by:
  4272 ;;		_SR04_GetDistance
  4273 ;; This function uses a non-reentrant model
  4274 ;;
  4275                           
  4276     07F6                     _TMR1_Start@SR04$F834:	
  4277                           ;psect for function _TMR1_Start@SR04$F834
  4278                           
  4279     07F6                     l2363:	
  4280                           ;incstack = 0
  4281                           ; Regs used in _TMR1_Start@SR04$F834: [status,2]
  4282                           
  4283                           
  4284                           ;../HAL/HC-SR04/SR04.c: 8:     T1CONbits.TMR1ON = 0;
  4285     07F6  1283               	bcf	3,5	;RP0=0, select bank0
  4286     07F7  1303               	bcf	3,6	;RP1=0, select bank0
  4287     07F8  1010               	bcf	16,0	;volatile
  4288     07F9                     l2365:
  4289                           
  4290                           ;../HAL/HC-SR04/SR04.c: 9:     TMR1H = 0;
  4291     07F9  018F               	clrf	15	;volatile
  4292                           
  4293                           ;../HAL/HC-SR04/SR04.c: 10:     TMR1L = 0;
  4294     07FA  018E               	clrf	14	;volatile
  4295     07FB                     l2367:
  4296                           
  4297                           ;../HAL/HC-SR04/SR04.c: 11:     PIR1bits.TMR1IF = 0;
  4298     07FB  100C               	bcf	12,0	;volatile
  4299     07FC                     l2369:
  4300                           
  4301                           ;../HAL/HC-SR04/SR04.c: 12:     T1CON = 0b00110001;
  4302     07FC  3031               	movlw	49
  4303     07FD  0090               	movwf	16	;volatile
  4304     07FE                     l451:
  4305     07FE  0008               	return
  4306     07FF                     __end_of_TMR1_Start@SR04$F834:
  4307                           
  4308                           	psect	text13
  4309     0BF9                     __ptext13:	
  4310 ;; *************** function _Motor_Turn_Right *****************
  4311 ;; Defined at:
  4312 ;;		line 57 in file "../HAL/Motor/Motor.c"
  4313 ;; Parameters:    Size  Location     Type
  4314 ;;		None
  4315 ;; Auto vars:     Size  Location     Type
  4316 ;;		None
  4317 ;; Return value:  Size  Location     Type
  4318 ;;                  1    wreg      void 
  4319 ;; Registers used:
  4320 ;;		None
  4321 ;; Tracked objects:
  4322 ;;		On entry : 0/0
  4323 ;;		On exit  : 0/0
  4324 ;;		Unchanged: 0/0
  4325 ;; Data sizes:     COMMON   BANK0   BANK1   BANK3   BANK2
  4326 ;;      Params:         0       0       0       0       0
  4327 ;;      Locals:         0       0       0       0       0
  4328 ;;      Temps:          0       0       0       0       0
  4329 ;;      Totals:         0       0       0       0       0
  4330 ;;Total ram usage:        0 bytes
  4331 ;; Hardware stack levels used: 1
  4332 ;; Hardware stack levels required when called: 1
  4333 ;; This function calls:
  4334 ;;		Nothing
  4335 ;; This function is called by:
  4336 ;;		_main
  4337 ;; This function uses a non-reentrant model
  4338 ;;
  4339                           
  4340     0BF9                     _Motor_Turn_Right:	
  4341                           ;psect for function _Motor_Turn_Right
  4342                           
  4343     0BF9                     l2439:	
  4344                           ;incstack = 0
  4345                           ; Regs used in _Motor_Turn_Right: []
  4346                           
  4347                           
  4348                           ;../HAL/Motor/Motor.c: 60:     PORTDbits.RD4 = 1; PORTDbits.RD5 = 0;
  4349     0BF9  1283               	bcf	3,5	;RP0=0, select bank0
  4350     0BFA  1303               	bcf	3,6	;RP1=0, select bank0
  4351     0BFB  1608               	bsf	8,4	;volatile
  4352     0BFC  1288               	bcf	8,5	;volatile
  4353                           
  4354                           ;../HAL/Motor/Motor.c: 61:     PORTDbits.RD6 = 0; PORTDbits.RD7 = 1;
  4355     0BFD  1308               	bcf	8,6	;volatile
  4356     0BFE  1788               	bsf	8,7	;volatile
  4357     0BFF                     l347:
  4358     0BFF  0008               	return
  4359     0C00                     __end_of_Motor_Turn_Right:
  4360                           
  4361                           	psect	text14
  4362     0BF2                     __ptext14:	
  4363 ;; *************** function _Motor_Turn_Left *****************
  4364 ;; Defined at:
  4365 ;;		line 50 in file "../HAL/Motor/Motor.c"
  4366 ;; Parameters:    Size  Location     Type
  4367 ;;		None
  4368 ;; Auto vars:     Size  Location     Type
  4369 ;;		None
  4370 ;; Return value:  Size  Location     Type
  4371 ;;                  1    wreg      void 
  4372 ;; Registers used:
  4373 ;;		None
  4374 ;; Tracked objects:
  4375 ;;		On entry : 0/0
  4376 ;;		On exit  : 0/0
  4377 ;;		Unchanged: 0/0
  4378 ;; Data sizes:     COMMON   BANK0   BANK1   BANK3   BANK2
  4379 ;;      Params:         0       0       0       0       0
  4380 ;;      Locals:         0       0       0       0       0
  4381 ;;      Temps:          0       0       0       0       0
  4382 ;;      Totals:         0       0       0       0       0
  4383 ;;Total ram usage:        0 bytes
  4384 ;; Hardware stack levels used: 1
  4385 ;; Hardware stack levels required when called: 1
  4386 ;; This function calls:
  4387 ;;		Nothing
  4388 ;; This function is called by:
  4389 ;;		_main
  4390 ;; This function uses a non-reentrant model
  4391 ;;
  4392                           
  4393     0BF2                     _Motor_Turn_Left:	
  4394                           ;psect for function _Motor_Turn_Left
  4395                           
  4396     0BF2                     l2437:	
  4397                           ;incstack = 0
  4398                           ; Regs used in _Motor_Turn_Left: []
  4399                           
  4400                           
  4401                           ;../HAL/Motor/Motor.c: 53:     PORTDbits.RD4 = 0; PORTDbits.RD5 = 1;
  4402     0BF2  1283               	bcf	3,5	;RP0=0, select bank0
  4403     0BF3  1303               	bcf	3,6	;RP1=0, select bank0
  4404     0BF4  1208               	bcf	8,4	;volatile
  4405     0BF5  1688               	bsf	8,5	;volatile
  4406                           
  4407                           ;../HAL/Motor/Motor.c: 54:     PORTDbits.RD6 = 1; PORTDbits.RD7 = 0;
  4408     0BF6  1708               	bsf	8,6	;volatile
  4409     0BF7  1388               	bcf	8,7	;volatile
  4410     0BF8                     l344:
  4411     0BF8  0008               	return
  4412     0BF9                     __end_of_Motor_Turn_Left:
  4413                           
  4414                           	psect	text15
  4415     0BEB                     __ptext15:	
  4416 ;; *************** function _Motor_Stop *****************
  4417 ;; Defined at:
  4418 ;;		line 32 in file "../HAL/Motor/Motor.c"
  4419 ;; Parameters:    Size  Location     Type
  4420 ;;		None
  4421 ;; Auto vars:     Size  Location     Type
  4422 ;;		None
  4423 ;; Return value:  Size  Location     Type
  4424 ;;                  1    wreg      void 
  4425 ;; Registers used:
  4426 ;;		None
  4427 ;; Tracked objects:
  4428 ;;		On entry : 0/0
  4429 ;;		On exit  : 0/0
  4430 ;;		Unchanged: 0/0
  4431 ;; Data sizes:     COMMON   BANK0   BANK1   BANK3   BANK2
  4432 ;;      Params:         0       0       0       0       0
  4433 ;;      Locals:         0       0       0       0       0
  4434 ;;      Temps:          0       0       0       0       0
  4435 ;;      Totals:         0       0       0       0       0
  4436 ;;Total ram usage:        0 bytes
  4437 ;; Hardware stack levels used: 1
  4438 ;; Hardware stack levels required when called: 1
  4439 ;; This function calls:
  4440 ;;		Nothing
  4441 ;; This function is called by:
  4442 ;;		_main
  4443 ;; This function uses a non-reentrant model
  4444 ;;
  4445                           
  4446     0BEB                     _Motor_Stop:	
  4447                           ;psect for function _Motor_Stop
  4448                           
  4449     0BEB                     l2431:	
  4450                           ;incstack = 0
  4451                           ; Regs used in _Motor_Stop: []
  4452                           
  4453                           
  4454                           ;../HAL/Motor/Motor.c: 34:     PORTDbits.RD4 = 0; PORTDbits.RD5 = 0;
  4455     0BEB  1283               	bcf	3,5	;RP0=0, select bank0
  4456     0BEC  1303               	bcf	3,6	;RP1=0, select bank0
  4457     0BED  1208               	bcf	8,4	;volatile
  4458     0BEE  1288               	bcf	8,5	;volatile
  4459                           
  4460                           ;../HAL/Motor/Motor.c: 35:     PORTDbits.RD6 = 0; PORTDbits.RD7 = 0;
  4461     0BEF  1308               	bcf	8,6	;volatile
  4462     0BF0  1388               	bcf	8,7	;volatile
  4463     0BF1                     l335:
  4464     0BF1  0008               	return
  4465     0BF2                     __end_of_Motor_Stop:
  4466                           
  4467                           	psect	text16
  4468     0BE4                     __ptext16:	
  4469 ;; *************** function _Motor_Reverse *****************
  4470 ;; Defined at:
  4471 ;;		line 44 in file "../HAL/Motor/Motor.c"
  4472 ;; Parameters:    Size  Location     Type
  4473 ;;		None
  4474 ;; Auto vars:     Size  Location     Type
  4475 ;;		None
  4476 ;; Return value:  Size  Location     Type
  4477 ;;                  1    wreg      void 
  4478 ;; Registers used:
  4479 ;;		None
  4480 ;; Tracked objects:
  4481 ;;		On entry : 0/0
  4482 ;;		On exit  : 0/0
  4483 ;;		Unchanged: 0/0
  4484 ;; Data sizes:     COMMON   BANK0   BANK1   BANK3   BANK2
  4485 ;;      Params:         0       0       0       0       0
  4486 ;;      Locals:         0       0       0       0       0
  4487 ;;      Temps:          0       0       0       0       0
  4488 ;;      Totals:         0       0       0       0       0
  4489 ;;Total ram usage:        0 bytes
  4490 ;; Hardware stack levels used: 1
  4491 ;; Hardware stack levels required when called: 1
  4492 ;; This function calls:
  4493 ;;		Nothing
  4494 ;; This function is called by:
  4495 ;;		_main
  4496 ;; This function uses a non-reentrant model
  4497 ;;
  4498                           
  4499     0BE4                     _Motor_Reverse:	
  4500                           ;psect for function _Motor_Reverse
  4501                           
  4502     0BE4                     l2435:	
  4503                           ;incstack = 0
  4504                           ; Regs used in _Motor_Reverse: []
  4505                           
  4506                           
  4507                           ;../HAL/Motor/Motor.c: 46:     PORTDbits.RD4 = 0; PORTDbits.RD5 = 1;
  4508     0BE4  1283               	bcf	3,5	;RP0=0, select bank0
  4509     0BE5  1303               	bcf	3,6	;RP1=0, select bank0
  4510     0BE6  1208               	bcf	8,4	;volatile
  4511     0BE7  1688               	bsf	8,5	;volatile
  4512                           
  4513                           ;../HAL/Motor/Motor.c: 47:     PORTDbits.RD6 = 0; PORTDbits.RD7 = 1;
  4514     0BE8  1308               	bcf	8,6	;volatile
  4515     0BE9  1788               	bsf	8,7	;volatile
  4516     0BEA                     l341:
  4517     0BEA  0008               	return
  4518     0BEB                     __end_of_Motor_Reverse:
  4519                           
  4520                           	psect	text17
  4521     0C25                     __ptext17:	
  4522 ;; *************** function _Motor_Init *****************
  4523 ;; Defined at:
  4524 ;;		line 22 in file "../HAL/Motor/Motor.c"
  4525 ;; Parameters:    Size  Location     Type
  4526 ;;		None
  4527 ;; Auto vars:     Size  Location     Type
  4528 ;;		None
  4529 ;; Return value:  Size  Location     Type
  4530 ;;                  1    wreg      void 
  4531 ;; Registers used:
  4532 ;;		wreg, status,2, status,0
  4533 ;; Tracked objects:
  4534 ;;		On entry : 0/0
  4535 ;;		On exit  : 0/0
  4536 ;;		Unchanged: 0/0
  4537 ;; Data sizes:     COMMON   BANK0   BANK1   BANK3   BANK2
  4538 ;;      Params:         0       0       0       0       0
  4539 ;;      Locals:         0       0       0       0       0
  4540 ;;      Temps:          0       0       0       0       0
  4541 ;;      Totals:         0       0       0       0       0
  4542 ;;Total ram usage:        0 bytes
  4543 ;; Hardware stack levels used: 1
  4544 ;; Hardware stack levels required when called: 1
  4545 ;; This function calls:
  4546 ;;		Nothing
  4547 ;; This function is called by:
  4548 ;;		_main
  4549 ;; This function uses a non-reentrant model
  4550 ;;
  4551                           
  4552     0C25                     _Motor_Init:	
  4553                           ;psect for function _Motor_Init
  4554                           
  4555     0C25                     l2427:	
  4556                           ;incstack = 0
  4557                           ; Regs used in _Motor_Init: [wreg+status,2+status,0]
  4558                           
  4559                           
  4560                           ;../HAL/Motor/Motor.c: 25:     TRISDbits.TRISD4 = 0;
  4561     0C25  1683               	bsf	3,5	;RP0=1, select bank1
  4562     0C26  1303               	bcf	3,6	;RP1=0, select bank1
  4563     0C27  1208               	bcf	8,4	;volatile
  4564                           
  4565                           ;../HAL/Motor/Motor.c: 26:     TRISDbits.TRISD5 = 0;
  4566     0C28  1288               	bcf	8,5	;volatile
  4567                           
  4568                           ;../HAL/Motor/Motor.c: 27:     TRISDbits.TRISD6 = 0;
  4569     0C29  1308               	bcf	8,6	;volatile
  4570                           
  4571                           ;../HAL/Motor/Motor.c: 28:     TRISDbits.TRISD7 = 0;
  4572     0C2A  1388               	bcf	8,7	;volatile
  4573     0C2B                     l2429:
  4574                           
  4575                           ;../HAL/Motor/Motor.c: 29:     PORTD &= 0x0F;
  4576     0C2B  300F               	movlw	15
  4577     0C2C  1283               	bcf	3,5	;RP0=0, select bank0
  4578     0C2D  1303               	bcf	3,6	;RP1=0, select bank0
  4579     0C2E  0588               	andwf	8,f	;volatile
  4580     0C2F                     l332:
  4581     0C2F  0008               	return
  4582     0C30                     __end_of_Motor_Init:
  4583                           
  4584                           	psect	text18
  4585     0BDD                     __ptext18:	
  4586 ;; *************** function _Motor_Forward *****************
  4587 ;; Defined at:
  4588 ;;		line 38 in file "../HAL/Motor/Motor.c"
  4589 ;; Parameters:    Size  Location     Type
  4590 ;;		None
  4591 ;; Auto vars:     Size  Location     Type
  4592 ;;		None
  4593 ;; Return value:  Size  Location     Type
  4594 ;;                  1    wreg      void 
  4595 ;; Registers used:
  4596 ;;		None
  4597 ;; Tracked objects:
  4598 ;;		On entry : 0/0
  4599 ;;		On exit  : 0/0
  4600 ;;		Unchanged: 0/0
  4601 ;; Data sizes:     COMMON   BANK0   BANK1   BANK3   BANK2
  4602 ;;      Params:         0       0       0       0       0
  4603 ;;      Locals:         0       0       0       0       0
  4604 ;;      Temps:          0       0       0       0       0
  4605 ;;      Totals:         0       0       0       0       0
  4606 ;;Total ram usage:        0 bytes
  4607 ;; Hardware stack levels used: 1
  4608 ;; Hardware stack levels required when called: 1
  4609 ;; This function calls:
  4610 ;;		Nothing
  4611 ;; This function is called by:
  4612 ;;		_main
  4613 ;; This function uses a non-reentrant model
  4614 ;;
  4615                           
  4616     0BDD                     _Motor_Forward:	
  4617                           ;psect for function _Motor_Forward
  4618                           
  4619     0BDD                     l2433:	
  4620                           ;incstack = 0
  4621                           ; Regs used in _Motor_Forward: []
  4622                           
  4623                           
  4624                           ;../HAL/Motor/Motor.c: 40:     PORTDbits.RD4 = 1; PORTDbits.RD5 = 0;
  4625     0BDD  1283               	bcf	3,5	;RP0=0, select bank0
  4626     0BDE  1303               	bcf	3,6	;RP1=0, select bank0
  4627     0BDF  1608               	bsf	8,4	;volatile
  4628     0BE0  1288               	bcf	8,5	;volatile
  4629                           
  4630                           ;../HAL/Motor/Motor.c: 41:     PORTDbits.RD6 = 1; PORTDbits.RD7 = 0;
  4631     0BE1  1708               	bsf	8,6	;volatile
  4632     0BE2  1388               	bcf	8,7	;volatile
  4633     0BE3                     l338:
  4634     0BE3  0008               	return
  4635     0BE4                     __end_of_Motor_Forward:
  4636                           
  4637                           	psect	text19
  4638     0CC6                     __ptext19:	
  4639 ;; *************** function _LCD_SetCursor *****************
  4640 ;; Defined at:
  4641 ;;		line 76 in file "../HAL/LCD/LCD.c"
  4642 ;; Parameters:    Size  Location     Type
  4643 ;;  row             1    wreg     unsigned char 
  4644 ;;  col             1    1[BANK0 ] unsigned char 
  4645 ;; Auto vars:     Size  Location     Type
  4646 ;;  row             1    4[BANK0 ] unsigned char 
  4647 ;;  addr            1    5[BANK0 ] unsigned char 
  4648 ;; Return value:  Size  Location     Type
  4649 ;;                  1    wreg      void 
  4650 ;; Registers used:
  4651 ;;		wreg, status,2, status,0, pclath, cstack
  4652 ;; Tracked objects:
  4653 ;;		On entry : 0/0
  4654 ;;		On exit  : 0/0
  4655 ;;		Unchanged: 0/0
  4656 ;; Data sizes:     COMMON   BANK0   BANK1   BANK3   BANK2
  4657 ;;      Params:         0       1       0       0       0
  4658 ;;      Locals:         0       4       0       0       0
  4659 ;;      Temps:          0       2       0       0       0
  4660 ;;      Totals:         0       7       0       0       0
  4661 ;;Total ram usage:        7 bytes
  4662 ;; Hardware stack levels used: 1
  4663 ;; Hardware stack levels required when called: 2
  4664 ;; This function calls:
  4665 ;;		_LCD_Send_Byte
  4666 ;; This function is called by:
  4667 ;;		_main
  4668 ;; This function uses a non-reentrant model
  4669 ;;
  4670                           
  4671     0CC6                     _LCD_SetCursor:	
  4672                           ;psect for function _LCD_SetCursor
  4673                           
  4674                           
  4675                           ;incstack = 0
  4676                           ; Regs used in _LCD_SetCursor: [wreg+status,2+status,0+pclath+cstack]
  4677                           ;LCD_SetCursor@row stored from wreg
  4678     0CC6  1283               	bcf	3,5	;RP0=0, select bank0
  4679     0CC7  1303               	bcf	3,6	;RP1=0, select bank0
  4680     0CC8  00A4               	movwf	LCD_SetCursor@row
  4681     0CC9                     l3179:
  4682                           
  4683                           ;../HAL/LCD/LCD.c: 77:     u8 addr = (row == 0) ? (0x00 + col) : (0x40 + col);
  4684     0CC9  0824               	movf	LCD_SetCursor@row,w
  4685     0CCA  1903               	btfsc	3,2
  4686     0CCB  2CCD               	goto	u2801
  4687     0CCC  2CCE               	goto	u2800
  4688     0CCD                     u2801:
  4689     0CCD  2CD6               	goto	l3183
  4690     0CCE                     u2800:
  4691     0CCE                     l3181:
  4692     0CCE  0821               	movf	LCD_SetCursor@col,w
  4693     0CCF  3E40               	addlw	64
  4694     0CD0  00A6               	movwf	_LCD_SetCursor$691
  4695     0CD1  3000               	movlw	0
  4696     0CD2  1803               	skipnc
  4697     0CD3  3001               	movlw	1
  4698     0CD4  00A7               	movwf	_LCD_SetCursor$691+1
  4699     0CD5  2CDD               	goto	l395
  4700     0CD6                     l3183:
  4701     0CD6  0821               	movf	LCD_SetCursor@col,w
  4702     0CD7  00A2               	movwf	??_LCD_SetCursor
  4703     0CD8  01A3               	clrf	??_LCD_SetCursor+1
  4704     0CD9  0822               	movf	??_LCD_SetCursor,w
  4705     0CDA  00A6               	movwf	_LCD_SetCursor$691
  4706     0CDB  0823               	movf	??_LCD_SetCursor+1,w
  4707     0CDC  00A7               	movwf	_LCD_SetCursor$691+1
  4708     0CDD                     l395:
  4709     0CDD  0826               	movf	_LCD_SetCursor$691,w
  4710     0CDE  00A5               	movwf	LCD_SetCursor@addr
  4711     0CDF                     l3185:
  4712                           
  4713                           ;../HAL/LCD/LCD.c: 78:     LCD_Send_Byte(0x80 | addr, 0);
  4714     0CDF  01F7               	clrf	LCD_Send_Byte@rs
  4715     0CE0  0825               	movf	LCD_SetCursor@addr,w
  4716     0CE1  3880               	iorlw	128
  4717     0CE2  120A  158A  25D0  120A  158A  	fcall	_LCD_Send_Byte
  4718     0CE7                     l396:
  4719     0CE7  0008               	return
  4720     0CE8                     __end_of_LCD_SetCursor:
  4721                           
  4722                           	psect	text20
  4723     0EF9                     __ptext20:	
  4724 ;; *************** function _LCD_Init *****************
  4725 ;; Defined at:
  4726 ;;		line 52 in file "../HAL/LCD/LCD.c"
  4727 ;; Parameters:    Size  Location     Type
  4728 ;;		None
  4729 ;; Auto vars:     Size  Location     Type
  4730 ;;		None
  4731 ;; Return value:  Size  Location     Type
  4732 ;;                  1    wreg      void 
  4733 ;; Registers used:
  4734 ;;		wreg, status,2, status,0, pclath, cstack
  4735 ;; Tracked objects:
  4736 ;;		On entry : 0/0
  4737 ;;		On exit  : 0/0
  4738 ;;		Unchanged: 0/0
  4739 ;; Data sizes:     COMMON   BANK0   BANK1   BANK3   BANK2
  4740 ;;      Params:         0       0       0       0       0
  4741 ;;      Locals:         0       0       0       0       0
  4742 ;;      Temps:          0       3       0       0       0
  4743 ;;      Totals:         0       3       0       0       0
  4744 ;;Total ram usage:        3 bytes
  4745 ;; Hardware stack levels used: 1
  4746 ;; Hardware stack levels required when called: 3
  4747 ;; This function calls:
  4748 ;;		_I2C_Master_Init
  4749 ;;		_LCD_Send_Byte
  4750 ;;		_LCD_Send_Nibble
  4751 ;; This function is called by:
  4752 ;;		_main
  4753 ;; This function uses a non-reentrant model
  4754 ;;
  4755                           
  4756     0EF9                     _LCD_Init:	
  4757                           ;psect for function _LCD_Init
  4758                           
  4759     0EF9                     l3153:	
  4760                           ;incstack = 0
  4761                           ; Regs used in _LCD_Init: [wreg+status,2+status,0+pclath+cstack]
  4762                           
  4763                           
  4764                           ;../HAL/LCD/LCD.c: 53:     I2C_Master_Init(50000);
  4765     0EF9  3000               	movlw	0
  4766     0EFA  1283               	bcf	3,5	;RP0=0, select bank0
  4767     0EFB  1303               	bcf	3,6	;RP1=0, select bank0
  4768     0EFC  00A9               	movwf	I2C_Master_Init@baud_rate+3
  4769     0EFD  3000               	movlw	0
  4770     0EFE  00A8               	movwf	I2C_Master_Init@baud_rate+2
  4771     0EFF  30C3               	movlw	195
  4772     0F00  00A7               	movwf	I2C_Master_Init@baud_rate+1
  4773     0F01  3050               	movlw	80
  4774     0F02  00A6               	movwf	I2C_Master_Init@baud_rate
  4775     0F03  120A  158A  2562  120A  158A  	fcall	_I2C_Master_Init
  4776     0F08                     l3155:
  4777                           
  4778                           ;../HAL/LCD/LCD.c: 54:     _delay((unsigned long)((50)*(20000000UL/4000.0)));
  4779     0F08  3002               	movlw	2
  4780     0F09  1283               	bcf	3,5	;RP0=0, select bank0
  4781     0F0A  1303               	bcf	3,6	;RP1=0, select bank0
  4782     0F0B  00B0               	movwf	??_LCD_Init+2
  4783     0F0C  3045               	movlw	69
  4784     0F0D  00AF               	movwf	??_LCD_Init+1
  4785     0F0E  30A9               	movlw	169
  4786     0F0F  00AE               	movwf	??_LCD_Init
  4787     0F10                     u3507:
  4788     0F10  0BAE               	decfsz	??_LCD_Init,f
  4789     0F11  2F10               	goto	u3507
  4790     0F12  0BAF               	decfsz	??_LCD_Init+1,f
  4791     0F13  2F10               	goto	u3507
  4792     0F14  0BB0               	decfsz	??_LCD_Init+2,f
  4793     0F15  2F10               	goto	u3507
  4794     0F16                     l3157:
  4795                           
  4796                           ;../HAL/LCD/LCD.c: 56:     LCD_Send_Nibble(0x03, 0);
  4797     0F16  01F3               	clrf	LCD_Send_Nibble@rs
  4798     0F17  3003               	movlw	3
  4799     0F18  120A  158A  264D  120A  158A  	fcall	_LCD_Send_Nibble
  4800                           
  4801                           ;../HAL/LCD/LCD.c: 57:     _delay((unsigned long)((5)*(20000000UL/4000.0)));
  4802     0F1D  3021               	movlw	33
  4803     0F1E  1283               	bcf	3,5	;RP0=0, select bank0
  4804     0F1F  1303               	bcf	3,6	;RP1=0, select bank0
  4805     0F20  00AF               	movwf	??_LCD_Init+1
  4806     0F21  3075               	movlw	117
  4807     0F22  00AE               	movwf	??_LCD_Init
  4808     0F23                     u3517:
  4809     0F23  0BAE               	decfsz	??_LCD_Init,f
  4810     0F24  2F23               	goto	u3517
  4811     0F25  0BAF               	decfsz	??_LCD_Init+1,f
  4812     0F26  2F23               	goto	u3517
  4813     0F27  2F28               	nop2
  4814     0F28                     l3159:
  4815                           
  4816                           ;../HAL/LCD/LCD.c: 58:     LCD_Send_Nibble(0x03, 0);
  4817     0F28  01F3               	clrf	LCD_Send_Nibble@rs
  4818     0F29  3003               	movlw	3
  4819     0F2A  120A  158A  264D  120A  158A  	fcall	_LCD_Send_Nibble
  4820     0F2F                     l3161:
  4821                           
  4822                           ;../HAL/LCD/LCD.c: 59:     _delay((unsigned long)((5)*(20000000UL/4000.0)));
  4823     0F2F  3021               	movlw	33
  4824     0F30  1283               	bcf	3,5	;RP0=0, select bank0
  4825     0F31  1303               	bcf	3,6	;RP1=0, select bank0
  4826     0F32  00AF               	movwf	??_LCD_Init+1
  4827     0F33  3075               	movlw	117
  4828     0F34  00AE               	movwf	??_LCD_Init
  4829     0F35                     u3527:
  4830     0F35  0BAE               	decfsz	??_LCD_Init,f
  4831     0F36  2F35               	goto	u3527
  4832     0F37  0BAF               	decfsz	??_LCD_Init+1,f
  4833     0F38  2F35               	goto	u3527
  4834     0F39  2F3A               	nop2
  4835                           
  4836                           ;../HAL/LCD/LCD.c: 60:     LCD_Send_Nibble(0x03, 0);
  4837     0F3A  01F3               	clrf	LCD_Send_Nibble@rs
  4838     0F3B  3003               	movlw	3
  4839     0F3C  120A  158A  264D  120A  158A  	fcall	_LCD_Send_Nibble
  4840     0F41                     l3163:
  4841                           
  4842                           ;../HAL/LCD/LCD.c: 61:     _delay((unsigned long)((200)*(20000000UL/4000000.0)));
  4843     0F41  30C7               	movlw	199
  4844     0F42  1283               	bcf	3,5	;RP0=0, select bank0
  4845     0F43  1303               	bcf	3,6	;RP1=0, select bank0
  4846     0F44  00AE               	movwf	??_LCD_Init
  4847     0F45                     u3537:
  4848     0F45  2F46               	nop2
  4849     0F46  0BAE               	decfsz	??_LCD_Init,f
  4850     0F47  2F45               	goto	u3537
  4851     0F48  2F49               	nop2
  4852     0F49                     l3165:
  4853                           
  4854                           ;../HAL/LCD/LCD.c: 62:     LCD_Send_Nibble(0x02, 0);
  4855     0F49  01F3               	clrf	LCD_Send_Nibble@rs
  4856     0F4A  3002               	movlw	2
  4857     0F4B  120A  158A  264D  120A  158A  	fcall	_LCD_Send_Nibble
  4858                           
  4859                           ;../HAL/LCD/LCD.c: 63:     _delay((unsigned long)((200)*(20000000UL/4000000.0)));
  4860     0F50  30C7               	movlw	199
  4861     0F51  1283               	bcf	3,5	;RP0=0, select bank0
  4862     0F52  1303               	bcf	3,6	;RP1=0, select bank0
  4863     0F53  00AE               	movwf	??_LCD_Init
  4864     0F54                     u3547:
  4865     0F54  2F55               	nop2
  4866     0F55  0BAE               	decfsz	??_LCD_Init,f
  4867     0F56  2F54               	goto	u3547
  4868     0F57  2F58               	nop2
  4869     0F58                     l3167:
  4870                           
  4871                           ;../HAL/LCD/LCD.c: 65:     LCD_Send_Byte(0x28, 0);
  4872     0F58  01F7               	clrf	LCD_Send_Byte@rs
  4873     0F59  3028               	movlw	40
  4874     0F5A  120A  158A  25D0  120A  158A  	fcall	_LCD_Send_Byte
  4875     0F5F                     l3169:
  4876                           
  4877                           ;../HAL/LCD/LCD.c: 66:     LCD_Send_Byte(0x08, 0);
  4878     0F5F  01F7               	clrf	LCD_Send_Byte@rs
  4879     0F60  3008               	movlw	8
  4880     0F61  120A  158A  25D0  120A  158A  	fcall	_LCD_Send_Byte
  4881     0F66                     l3171:
  4882                           
  4883                           ;../HAL/LCD/LCD.c: 67:     LCD_Send_Byte(0x01, 0);
  4884     0F66  01F7               	clrf	LCD_Send_Byte@rs
  4885     0F67  3001               	movlw	1
  4886     0F68  120A  158A  25D0  120A  158A  	fcall	_LCD_Send_Byte
  4887     0F6D                     l3173:
  4888                           
  4889                           ;../HAL/LCD/LCD.c: 68:     LCD_Send_Byte(0x06, 0);
  4890     0F6D  01F7               	clrf	LCD_Send_Byte@rs
  4891     0F6E  3006               	movlw	6
  4892     0F6F  120A  158A  25D0  120A  158A  	fcall	_LCD_Send_Byte
  4893     0F74                     l3175:
  4894                           
  4895                           ;../HAL/LCD/LCD.c: 69:     LCD_Send_Byte(0x0C, 0);
  4896     0F74  01F7               	clrf	LCD_Send_Byte@rs
  4897     0F75  300C               	movlw	12
  4898     0F76  120A  158A  25D0  120A  158A  	fcall	_LCD_Send_Byte
  4899     0F7B                     l386:
  4900     0F7B  0008               	return
  4901     0F7C                     __end_of_LCD_Init:
  4902                           
  4903                           	psect	text21
  4904     0D62                     __ptext21:	
  4905 ;; *************** function _I2C_Master_Init *****************
  4906 ;; Defined at:
  4907 ;;		line 8 in file "../MCAL/I2C/I2C.c"
  4908 ;; Parameters:    Size  Location     Type
  4909 ;;  baud_rate       4    6[BANK0 ] unsigned long 
  4910 ;; Auto vars:     Size  Location     Type
  4911 ;;		None
  4912 ;; Return value:  Size  Location     Type
  4913 ;;                  1    wreg      void 
  4914 ;; Registers used:
  4915 ;;		wreg, status,2, status,0, pclath, cstack
  4916 ;; Tracked objects:
  4917 ;;		On entry : 0/0
  4918 ;;		On exit  : 0/0
  4919 ;;		Unchanged: 0/0
  4920 ;; Data sizes:     COMMON   BANK0   BANK1   BANK3   BANK2
  4921 ;;      Params:         0       4       0       0       0
  4922 ;;      Locals:         0       0       0       0       0
  4923 ;;      Temps:          0       4       0       0       0
  4924 ;;      Totals:         0       8       0       0       0
  4925 ;;Total ram usage:        8 bytes
  4926 ;; Hardware stack levels used: 1
  4927 ;; Hardware stack levels required when called: 2
  4928 ;; This function calls:
  4929 ;;		___lldiv
  4930 ;; This function is called by:
  4931 ;;		_LCD_Init
  4932 ;; This function uses a non-reentrant model
  4933 ;;
  4934                           
  4935     0D62                     _I2C_Master_Init:	
  4936                           ;psect for function _I2C_Master_Init
  4937                           
  4938     0D62                     l3091:	
  4939                           ;incstack = 0
  4940                           ; Regs used in _I2C_Master_Init: [wreg+status,2+status,0+pclath+cstack]
  4941                           
  4942                           
  4943                           ;../MCAL/I2C/I2C.c: 10:     TRISCbits.TRISC3 = 1;
  4944     0D62  1683               	bsf	3,5	;RP0=1, select bank1
  4945     0D63  1303               	bcf	3,6	;RP1=0, select bank1
  4946     0D64  1587               	bsf	7,3	;volatile
  4947                           
  4948                           ;../MCAL/I2C/I2C.c: 11:     TRISCbits.TRISC4 = 1;
  4949     0D65  1607               	bsf	7,4	;volatile
  4950                           
  4951                           ;../MCAL/I2C/I2C.c: 16:     SSPSTAT = 0x80;
  4952     0D66  3080               	movlw	128
  4953     0D67  0094               	movwf	20	;volatile
  4954                           
  4955                           ;../MCAL/I2C/I2C.c: 21:     SSPCON = 0x28;
  4956     0D68  3028               	movlw	40
  4957     0D69  1283               	bcf	3,5	;RP0=0, select bank0
  4958     0D6A  1303               	bcf	3,6	;RP1=0, select bank0
  4959     0D6B  0094               	movwf	20	;volatile
  4960     0D6C                     l3093:
  4961                           
  4962                           ;../MCAL/I2C/I2C.c: 25:     SSPADD = (u8)((20000000UL / (4 * baud_rate)) - 1);
  4963     0D6C  0826               	movf	I2C_Master_Init@baud_rate,w
  4964     0D6D  00AA               	movwf	??_I2C_Master_Init
  4965     0D6E  0827               	movf	I2C_Master_Init@baud_rate+1,w
  4966     0D6F  00AB               	movwf	??_I2C_Master_Init+1
  4967     0D70  0828               	movf	I2C_Master_Init@baud_rate+2,w
  4968     0D71  00AC               	movwf	??_I2C_Master_Init+2
  4969     0D72  0829               	movf	I2C_Master_Init@baud_rate+3,w
  4970     0D73  00AD               	movwf	??_I2C_Master_Init+3
  4971     0D74  3002               	movlw	2
  4972     0D75                     u2735:
  4973     0D75  1003               	clrc
  4974     0D76  0DAA               	rlf	??_I2C_Master_Init,f
  4975     0D77  0DAB               	rlf	??_I2C_Master_Init+1,f
  4976     0D78  0DAC               	rlf	??_I2C_Master_Init+2,f
  4977     0D79  0DAD               	rlf	??_I2C_Master_Init+3,f
  4978     0D7A                     u2730:
  4979     0D7A  3EFF               	addlw	-1
  4980     0D7B  1D03               	skipz
  4981     0D7C  2D75               	goto	u2735
  4982     0D7D  082D               	movf	??_I2C_Master_Init+3,w
  4983     0D7E  00F5               	movwf	___lldiv@divisor+3
  4984     0D7F  082C               	movf	??_I2C_Master_Init+2,w
  4985     0D80  00F4               	movwf	___lldiv@divisor+2
  4986     0D81  082B               	movf	??_I2C_Master_Init+1,w
  4987     0D82  00F3               	movwf	___lldiv@divisor+1
  4988     0D83  082A               	movf	??_I2C_Master_Init,w
  4989     0D84  00F2               	movwf	___lldiv@divisor
  4990     0D85  3001               	movlw	1
  4991     0D86  00F9               	movwf	___lldiv@dividend+3
  4992     0D87  3031               	movlw	49
  4993     0D88  00F8               	movwf	___lldiv@dividend+2
  4994     0D89  302D               	movlw	45
  4995     0D8A  00F7               	movwf	___lldiv@dividend+1
  4996     0D8B  3000               	movlw	0
  4997     0D8C  00F6               	movwf	___lldiv@dividend
  4998     0D8D  120A  118A  2790  120A  158A  	fcall	___lldiv
  4999     0D92  0872               	movf	?___lldiv,w
  5000     0D93  3EFF               	addlw	255
  5001     0D94  1683               	bsf	3,5	;RP0=1, select bank1
  5002     0D95  1303               	bcf	3,6	;RP1=0, select bank1
  5003     0D96  0093               	movwf	19	;volatile
  5004     0D97                     l190:
  5005     0D97  0008               	return
  5006     0D98                     __end_of_I2C_Master_Init:
  5007                           
  5008                           	psect	text22
  5009     0790                     __ptext22:	
  5010 ;; *************** function ___lldiv *****************
  5011 ;; Defined at:
  5012 ;;		line 5 in file "C:\Program Files\Microchip\xc8\v3.10\pic\sources\c99\common\__lldiv.c"
  5013 ;; Parameters:    Size  Location     Type
  5014 ;;  divisor         4    2[COMMON] unsigned long 
  5015 ;;  dividend        4    6[COMMON] unsigned long 
  5016 ;; Auto vars:     Size  Location     Type
  5017 ;;  quotient        4    1[BANK0 ] unsigned long 
  5018 ;;  counter         1    5[BANK0 ] unsigned char 
  5019 ;; Return value:  Size  Location     Type
  5020 ;;                  4    2[COMMON] unsigned long 
  5021 ;; Registers used:
  5022 ;;		wreg, status,2, status,0
  5023 ;; Tracked objects:
  5024 ;;		On entry : 0/0
  5025 ;;		On exit  : 0/0
  5026 ;;		Unchanged: 0/0
  5027 ;; Data sizes:     COMMON   BANK0   BANK1   BANK3   BANK2
  5028 ;;      Params:         8       0       0       0       0
  5029 ;;      Locals:         0       5       0       0       0
  5030 ;;      Temps:          0       1       0       0       0
  5031 ;;      Totals:         8       6       0       0       0
  5032 ;;Total ram usage:       14 bytes
  5033 ;; Hardware stack levels used: 1
  5034 ;; Hardware stack levels required when called: 1
  5035 ;; This function calls:
  5036 ;;		Nothing
  5037 ;; This function is called by:
  5038 ;;		_I2C_Master_Init
  5039 ;;		_PWM_SetServoAngle
  5040 ;; This function uses a non-reentrant model
  5041 ;;
  5042                           
  5043     0790                     ___lldiv:	
  5044                           ;psect for function ___lldiv
  5045                           
  5046     0790                     l3047:	
  5047                           ;incstack = 0
  5048                           ; Regs used in ___lldiv: [wreg+status,2+status,0]
  5049                           
  5050     0790  3000               	movlw	0
  5051     0791  1283               	bcf	3,5	;RP0=0, select bank0
  5052     0792  1303               	bcf	3,6	;RP1=0, select bank0
  5053     0793  00A4               	movwf	___lldiv@quotient+3
  5054     0794  3000               	movlw	0
  5055     0795  00A3               	movwf	___lldiv@quotient+2
  5056     0796  3000               	movlw	0
  5057     0797  00A2               	movwf	___lldiv@quotient+1
  5058     0798  3000               	movlw	0
  5059     0799  00A1               	movwf	___lldiv@quotient
  5060     079A  0875               	movf	___lldiv@divisor+3,w
  5061     079B  0474               	iorwf	___lldiv@divisor+2,w
  5062     079C  0473               	iorwf	___lldiv@divisor+1,w
  5063     079D  0472               	iorwf	___lldiv@divisor,w
  5064     079E  1903               	skipnz
  5065     079F  2FA1               	goto	u2631
  5066     07A0  2FA2               	goto	u2630
  5067     07A1                     u2631:
  5068     07A1  2FED               	goto	l3067
  5069     07A2                     u2630:
  5070     07A2                     l3049:
  5071     07A2  3001               	movlw	1
  5072     07A3  00A5               	movwf	___lldiv@counter
  5073     07A4  2FB0               	goto	l3053
  5074     07A5                     l3051:
  5075     07A5  3001               	movlw	1
  5076     07A6  00A0               	movwf	??___lldiv
  5077     07A7                     u2645:
  5078     07A7  1003               	clrc
  5079     07A8  0DF2               	rlf	___lldiv@divisor,f
  5080     07A9  0DF3               	rlf	___lldiv@divisor+1,f
  5081     07AA  0DF4               	rlf	___lldiv@divisor+2,f
  5082     07AB  0DF5               	rlf	___lldiv@divisor+3,f
  5083     07AC  0BA0               	decfsz	??___lldiv,f
  5084     07AD  2FA7               	goto	u2645
  5085     07AE  3001               	movlw	1
  5086     07AF  07A5               	addwf	___lldiv@counter,f
  5087     07B0                     l3053:
  5088     07B0  1FF5               	btfss	___lldiv@divisor+3,7
  5089     07B1  2FB3               	goto	u2651
  5090     07B2  2FB4               	goto	u2650
  5091     07B3                     u2651:
  5092     07B3  2FA5               	goto	l3051
  5093     07B4                     u2650:
  5094     07B4                     l3055:
  5095     07B4  3001               	movlw	1
  5096     07B5  00A0               	movwf	??___lldiv
  5097     07B6                     u2665:
  5098     07B6  1003               	clrc
  5099     07B7  0DA1               	rlf	___lldiv@quotient,f
  5100     07B8  0DA2               	rlf	___lldiv@quotient+1,f
  5101     07B9  0DA3               	rlf	___lldiv@quotient+2,f
  5102     07BA  0DA4               	rlf	___lldiv@quotient+3,f
  5103     07BB  0BA0               	decfsz	??___lldiv,f
  5104     07BC  2FB6               	goto	u2665
  5105     07BD                     l3057:
  5106     07BD  0875               	movf	___lldiv@divisor+3,w
  5107     07BE  0279               	subwf	___lldiv@dividend+3,w
  5108     07BF  1D03               	skipz
  5109     07C0  2FCB               	goto	u2675
  5110     07C1  0874               	movf	___lldiv@divisor+2,w
  5111     07C2  0278               	subwf	___lldiv@dividend+2,w
  5112     07C3  1D03               	skipz
  5113     07C4  2FCB               	goto	u2675
  5114     07C5  0873               	movf	___lldiv@divisor+1,w
  5115     07C6  0277               	subwf	___lldiv@dividend+1,w
  5116     07C7  1D03               	skipz
  5117     07C8  2FCB               	goto	u2675
  5118     07C9  0872               	movf	___lldiv@divisor,w
  5119     07CA  0276               	subwf	___lldiv@dividend,w
  5120     07CB                     u2675:
  5121     07CB  1C03               	skipc
  5122     07CC  2FCE               	goto	u2671
  5123     07CD  2FCF               	goto	u2670
  5124     07CE                     u2671:
  5125     07CE  2FDE               	goto	l3063
  5126     07CF                     u2670:
  5127     07CF                     l3059:
  5128     07CF  0872               	movf	___lldiv@divisor,w
  5129     07D0  02F6               	subwf	___lldiv@dividend,f
  5130     07D1  0873               	movf	___lldiv@divisor+1,w
  5131     07D2  1C03               	skipc
  5132     07D3  0F73               	incfsz	___lldiv@divisor+1,w
  5133     07D4  02F7               	subwf	___lldiv@dividend+1,f
  5134     07D5  0874               	movf	___lldiv@divisor+2,w
  5135     07D6  1C03               	skipc
  5136     07D7  0F74               	incfsz	___lldiv@divisor+2,w
  5137     07D8  02F8               	subwf	___lldiv@dividend+2,f
  5138     07D9  0875               	movf	___lldiv@divisor+3,w
  5139     07DA  1C03               	skipc
  5140     07DB  0F75               	incfsz	___lldiv@divisor+3,w
  5141     07DC  02F9               	subwf	___lldiv@dividend+3,f
  5142     07DD                     l3061:
  5143     07DD  1421               	bsf	___lldiv@quotient,0
  5144     07DE                     l3063:
  5145     07DE  3001               	movlw	1
  5146     07DF                     u2685:
  5147     07DF  1003               	clrc
  5148     07E0  0CF5               	rrf	___lldiv@divisor+3,f
  5149     07E1  0CF4               	rrf	___lldiv@divisor+2,f
  5150     07E2  0CF3               	rrf	___lldiv@divisor+1,f
  5151     07E3  0CF2               	rrf	___lldiv@divisor,f
  5152     07E4  3EFF               	addlw	-1
  5153     07E5  1D03               	skipz
  5154     07E6  2FDF               	goto	u2685
  5155     07E7                     l3065:
  5156     07E7  3001               	movlw	1
  5157     07E8  02A5               	subwf	___lldiv@counter,f
  5158     07E9  1D03               	btfss	3,2
  5159     07EA  2FEC               	goto	u2691
  5160     07EB  2FED               	goto	u2690
  5161     07EC                     u2691:
  5162     07EC  2FB4               	goto	l3055
  5163     07ED                     u2690:
  5164     07ED                     l3067:
  5165     07ED  0824               	movf	___lldiv@quotient+3,w
  5166     07EE  00F5               	movwf	?___lldiv+3
  5167     07EF  0823               	movf	___lldiv@quotient+2,w
  5168     07F0  00F4               	movwf	?___lldiv+2
  5169     07F1  0822               	movf	___lldiv@quotient+1,w
  5170     07F2  00F3               	movwf	?___lldiv+1
  5171     07F3  0821               	movf	___lldiv@quotient,w
  5172     07F4  00F2               	movwf	?___lldiv
  5173     07F5                     l727:
  5174     07F5  0008               	return
  5175     07F6                     __end_of___lldiv:
  5176                           
  5177                           	psect	text23
  5178     0C00                     __ptext23:	
  5179 ;; *************** function _LCD_Clear *****************
  5180 ;; Defined at:
  5181 ;;		line 72 in file "../HAL/LCD/LCD.c"
  5182 ;; Parameters:    Size  Location     Type
  5183 ;;		None
  5184 ;; Auto vars:     Size  Location     Type
  5185 ;;		None
  5186 ;; Return value:  Size  Location     Type
  5187 ;;                  1    wreg      void 
  5188 ;; Registers used:
  5189 ;;		wreg, status,2, status,0, pclath, cstack
  5190 ;; Tracked objects:
  5191 ;;		On entry : 0/0
  5192 ;;		On exit  : 0/0
  5193 ;;		Unchanged: 0/0
  5194 ;; Data sizes:     COMMON   BANK0   BANK1   BANK3   BANK2
  5195 ;;      Params:         0       0       0       0       0
  5196 ;;      Locals:         0       0       0       0       0
  5197 ;;      Temps:          0       0       0       0       0
  5198 ;;      Totals:         0       0       0       0       0
  5199 ;;Total ram usage:        0 bytes
  5200 ;; Hardware stack levels used: 1
  5201 ;; Hardware stack levels required when called: 2
  5202 ;; This function calls:
  5203 ;;		_LCD_Send_Byte
  5204 ;; This function is called by:
  5205 ;;		_main
  5206 ;; This function uses a non-reentrant model
  5207 ;;
  5208                           
  5209     0C00                     _LCD_Clear:	
  5210                           ;psect for function _LCD_Clear
  5211                           
  5212     0C00                     l3177:	
  5213                           ;incstack = 0
  5214                           ; Regs used in _LCD_Clear: [wreg+status,2+status,0+pclath+cstack]
  5215                           
  5216                           
  5217                           ;../HAL/LCD/LCD.c: 73:     LCD_Send_Byte(0x01, 0);
  5218     0C00  01F7               	clrf	LCD_Send_Byte@rs
  5219     0C01  3001               	movlw	1
  5220     0C02  120A  158A  25D0  120A  158A  	fcall	_LCD_Send_Byte
  5221     0C07                     l389:
  5222     0C07  0008               	return
  5223     0C08                     __end_of_LCD_Clear:
  5224                           
  5225                           	psect	text24
  5226     0D38                     __ptext24:	
  5227 ;; *************** function _Display_Distance *****************
  5228 ;; Defined at:
  5229 ;;		line 746 in file "../APP/main.c"
  5230 ;; Parameters:    Size  Location     Type
  5231 ;;  dist            2   11[BANK0 ] unsigned short 
  5232 ;; Auto vars:     Size  Location     Type
  5233 ;;		None
  5234 ;; Return value:  Size  Location     Type
  5235 ;;                  1    wreg      void 
  5236 ;; Registers used:
  5237 ;;		wreg, fsr0l, fsr0h, status,2, status,0, pclath, btemp1, cstack
  5238 ;; Tracked objects:
  5239 ;;		On entry : 0/0
  5240 ;;		On exit  : 0/0
  5241 ;;		Unchanged: 0/0
  5242 ;; Data sizes:     COMMON   BANK0   BANK1   BANK3   BANK2
  5243 ;;      Params:         0       2       0       0       0
  5244 ;;      Locals:         0       0       0       0       0
  5245 ;;      Temps:          0       0       0       0       0
  5246 ;;      Totals:         0       2       0       0       0
  5247 ;;Total ram usage:        2 bytes
  5248 ;; Hardware stack levels used: 1
  5249 ;; Hardware stack levels required when called: 7
  5250 ;; This function calls:
  5251 ;;		_LCD_WriteNumber
  5252 ;;		_LCD_WriteString
  5253 ;; This function is called by:
  5254 ;;		_main
  5255 ;; This function uses a non-reentrant model
  5256 ;;
  5257                           
  5258     0D38                     _Display_Distance:	
  5259                           ;psect for function _Display_Distance
  5260                           
  5261     0D38                     l3279:	
  5262                           ;incstack = 0
  5263                           ; Regs used in _Display_Distance: [wreg-fsr0h+status,2+status,0+pclath+btemp1+cstack]
  5264                           
  5265     0D38  30E7               	movlw	231
  5266     0D39  1283               	bcf	3,5	;RP0=0, select bank0
  5267     0D3A  1303               	bcf	3,6	;RP1=0, select bank0
  5268     0D3B  062B               	xorwf	Display_Distance@dist,w
  5269     0D3C  3003               	movlw	3
  5270     0D3D  1903               	skipnz
  5271     0D3E  062C               	xorwf	Display_Distance@dist+1,w
  5272     0D3F  1D03               	btfss	3,2
  5273     0D40  2D42               	goto	u3001
  5274     0D41  2D43               	goto	u3000
  5275     0D42                     u3001:
  5276     0D42  2D4D               	goto	l3283
  5277     0D43                     u3000:
  5278     0D43                     l3281:
  5279     0D43  3074               	movlw	low (STR_17| (0+32768))
  5280     0D44  00A1               	movwf	LCD_WriteString@str
  5281     0D45  3086               	movlw	high (STR_17| (0+32768))
  5282     0D46  00A2               	movwf	LCD_WriteString@str+1
  5283     0D47  120A  158A  250E  120A  158A  	fcall	_LCD_WriteString
  5284     0D4C  2D61               	goto	l555
  5285     0D4D                     l3283:
  5286     0D4D  082C               	movf	Display_Distance@dist+1,w
  5287     0D4E  00A3               	movwf	LCD_WriteNumber@num+1
  5288     0D4F  082B               	movf	Display_Distance@dist,w
  5289     0D50  00A2               	movwf	LCD_WriteNumber@num
  5290     0D51  120A  158A  26A3  120A  158A  	fcall	_LCD_WriteNumber
  5291     0D56                     l3285:
  5292     0D56  300E               	movlw	low ((STR_37+14)| (0+32768))
  5293     0D57  1283               	bcf	3,5	;RP0=0, select bank0
  5294     0D58  1303               	bcf	3,6	;RP1=0, select bank0
  5295     0D59  00A1               	movwf	LCD_WriteString@str
  5296     0D5A  3085               	movlw	high ((STR_37+14)| (0+32768))
  5297     0D5B  00A2               	movwf	LCD_WriteString@str+1
  5298     0D5C  120A  158A  250E  120A  158A  	fcall	_LCD_WriteString
  5299     0D61                     l555:
  5300     0D61  0008               	return
  5301     0D62                     __end_of_Display_Distance:
  5302                           
  5303                           	psect	text25
  5304     0D0E                     __ptext25:	
  5305 ;; *************** function _LCD_WriteString *****************
  5306 ;; Defined at:
  5307 ;;		line 85 in file "../HAL/LCD/LCD.c"
  5308 ;; Parameters:    Size  Location     Type
  5309 ;;  str             2    1[BANK0 ] PTR unsigned char 
  5310 ;;		 -> STR_38(17), STR_37(17), STR_36(17), STR_35(17), 
  5311 ;;		 -> STR_34(16), STR_33(17), STR_32(16), STR_31(16), 
  5312 ;;		 -> STR_30(17), STR_29(17), STR_28(17), STR_27(17), 
  5313 ;;		 -> STR_26(17), STR_25(17), STR_24(17), STR_23(17), 
  5314 ;;		 -> STR_22(17), STR_20(12), STR_19(14), STR_18(3), 
  5315 ;;		 -> STR_17(5), 
  5316 ;; Auto vars:     Size  Location     Type
  5317 ;;		None
  5318 ;; Return value:  Size  Location     Type
  5319 ;;                  1    wreg      void 
  5320 ;; Registers used:
  5321 ;;		wreg, fsr0l, fsr0h, status,2, status,0, pclath, btemp1, cstack
  5322 ;; Tracked objects:
  5323 ;;		On entry : 0/0
  5324 ;;		On exit  : 0/0
  5325 ;;		Unchanged: 0/0
  5326 ;; Data sizes:     COMMON   BANK0   BANK1   BANK3   BANK2
  5327 ;;      Params:         0       2       0       0       0
  5328 ;;      Locals:         0       0       0       0       0
  5329 ;;      Temps:          0       0       0       0       0
  5330 ;;      Totals:         0       2       0       0       0
  5331 ;;Total ram usage:        2 bytes
  5332 ;; Hardware stack levels used: 1
  5333 ;; Hardware stack levels required when called: 1
  5334 ;; This function calls:
  5335 ;;		_LCD_Send_Byte
  5336 ;; This function is called by:
  5337 ;;		_Display_Distance
  5338 ;;		_main
  5339 ;; This function uses a non-reentrant model
  5340 ;;
  5341                           
  5342     0D0E                     _LCD_WriteString:	
  5343                           ;psect for function _LCD_WriteString
  5344                           
  5345     0D0E                     l3095:	
  5346                           ;incstack = 0
  5347                           ; Regs used in _LCD_WriteString: [wreg-fsr0h+status,2+status,0+pclath+btemp1+cstack]
  5348                           
  5349                           
  5350                           ;../HAL/LCD/LCD.c: 86:     while (*str) {
  5351     0D0E  2D27               	goto	l3101
  5352     0D0F                     l3097:
  5353                           
  5354                           ;../HAL/LCD/LCD.c: 87:         LCD_Send_Byte((u8)*str, 1);
  5355     0D0F  01F7               	clrf	LCD_Send_Byte@rs
  5356     0D10  0AF7               	incf	LCD_Send_Byte@rs,f
  5357     0D11  0822               	movf	LCD_WriteString@str+1,w
  5358     0D12  00FF               	movwf	btemp1
  5359     0D13  0821               	movf	LCD_WriteString@str,w
  5360     0D14  0084               	movwf	4
  5361     0D15  120A  158A  2000  120A  158A  	fcall	stringtab
  5362     0D1A  120A  158A  25D0  120A  158A  	fcall	_LCD_Send_Byte
  5363     0D1F                     l3099:
  5364                           
  5365                           ;../HAL/LCD/LCD.c: 88:         str++;
  5366     0D1F  3001               	movlw	1
  5367     0D20  1283               	bcf	3,5	;RP0=0, select bank0
  5368     0D21  1303               	bcf	3,6	;RP1=0, select bank0
  5369     0D22  07A1               	addwf	LCD_WriteString@str,f
  5370     0D23  1803               	skipnc
  5371     0D24  0AA2               	incf	LCD_WriteString@str+1,f
  5372     0D25  3000               	movlw	0
  5373     0D26  07A2               	addwf	LCD_WriteString@str+1,f
  5374     0D27                     l3101:
  5375                           
  5376                           ;../HAL/LCD/LCD.c: 86:     while (*str) {
  5377     0D27  1283               	bcf	3,5	;RP0=0, select bank0
  5378     0D28  1303               	bcf	3,6	;RP1=0, select bank0
  5379     0D29  0822               	movf	LCD_WriteString@str+1,w
  5380     0D2A  00FF               	movwf	btemp1
  5381     0D2B  0821               	movf	LCD_WriteString@str,w
  5382     0D2C  0084               	movwf	4
  5383     0D2D  120A  158A  2000  120A  158A  	fcall	stringtab
  5384     0D32  3A00               	xorlw	0
  5385     0D33  1D03               	skipz
  5386     0D34  2D36               	goto	u2741
  5387     0D35  2D37               	goto	u2740
  5388     0D36                     u2741:
  5389     0D36  2D0F               	goto	l3097
  5390     0D37                     u2740:
  5391     0D37                     l405:
  5392     0D37  0008               	return
  5393     0D38                     __end_of_LCD_WriteString:
  5394                           
  5395                           	psect	text26
  5396     0EA3                     __ptext26:	
  5397 ;; *************** function _LCD_WriteNumber *****************
  5398 ;; Defined at:
  5399 ;;		line 92 in file "../HAL/LCD/LCD.c"
  5400 ;; Parameters:    Size  Location     Type
  5401 ;;  num             2    2[BANK0 ] unsigned short 
  5402 ;; Auto vars:     Size  Location     Type
  5403 ;;  buf             6    4[BANK0 ] unsigned char [6]
  5404 ;;  i               1   10[BANK0 ] unsigned char 
  5405 ;; Return value:  Size  Location     Type
  5406 ;;                  1    wreg      void 
  5407 ;; Registers used:
  5408 ;;		wreg, fsr0l, fsr0h, status,2, status,0, pclath, cstack
  5409 ;; Tracked objects:
  5410 ;;		On entry : 0/0
  5411 ;;		On exit  : 0/0
  5412 ;;		Unchanged: 0/0
  5413 ;; Data sizes:     COMMON   BANK0   BANK1   BANK3   BANK2
  5414 ;;      Params:         0       2       0       0       0
  5415 ;;      Locals:         0       7       0       0       0
  5416 ;;      Temps:          0       0       0       0       0
  5417 ;;      Totals:         0       9       0       0       0
  5418 ;;Total ram usage:        9 bytes
  5419 ;; Hardware stack levels used: 1
  5420 ;; Hardware stack levels required when called: 6
  5421 ;; This function calls:
  5422 ;;		_LCD_WriteChar
  5423 ;;		___lwdiv
  5424 ;;		___lwmod
  5425 ;; This function is called by:
  5426 ;;		_Display_Distance
  5427 ;; This function uses a non-reentrant model
  5428 ;;
  5429                           
  5430     0EA3                     _LCD_WriteNumber:	
  5431                           ;psect for function _LCD_WriteNumber
  5432                           
  5433     0EA3                     l3103:	
  5434                           ;incstack = 0
  5435                           ; Regs used in _LCD_WriteNumber: [wreg-fsr0h+status,2+status,0+pclath+cstack]
  5436                           
  5437                           
  5438                           ;../HAL/LCD/LCD.c: 93:     char buf[6];;../HAL/LCD/LCD.c: 94:     u8 i = 0;
  5439     0EA3  1283               	bcf	3,5	;RP0=0, select bank0
  5440     0EA4  1303               	bcf	3,6	;RP1=0, select bank0
  5441     0EA5  01AA               	clrf	LCD_WriteNumber@i
  5442     0EA6                     l3105:
  5443                           
  5444                           ;../HAL/LCD/LCD.c: 95:     if (num == 0) {
  5445     0EA6  0822               	movf	LCD_WriteNumber@num,w
  5446     0EA7  0423               	iorwf	LCD_WriteNumber@num+1,w
  5447     0EA8  1D03               	btfss	3,2
  5448     0EA9  2EAB               	goto	u2751
  5449     0EAA  2EAC               	goto	u2750
  5450     0EAB                     u2751:
  5451     0EAB  2EDE               	goto	l3117
  5452     0EAC                     u2750:
  5453     0EAC                     l3107:
  5454                           
  5455                           ;../HAL/LCD/LCD.c: 96:         LCD_WriteChar('0');
  5456     0EAC  3030               	movlw	48
  5457     0EAD  120A  158A  2430  120A  158A  	fcall	_LCD_WriteChar
  5458     0EB2  2EF8               	goto	l409
  5459     0EB3                     l3111:
  5460                           
  5461                           ;../HAL/LCD/LCD.c: 100:         buf[i++] = (num % 10) + '0';
  5462     0EB3  082A               	movf	LCD_WriteNumber@i,w
  5463     0EB4  3E24               	addlw	(low (LCD_WriteNumber@buf| 0))& (0+255)
  5464     0EB5  0084               	movwf	4
  5465     0EB6  300A               	movlw	10
  5466     0EB7  00F2               	movwf	___lwmod@divisor
  5467     0EB8  3000               	movlw	0
  5468     0EB9  00F3               	movwf	___lwmod@divisor+1
  5469     0EBA  0823               	movf	LCD_WriteNumber@num+1,w
  5470     0EBB  00F5               	movwf	___lwmod@dividend+1
  5471     0EBC  0822               	movf	LCD_WriteNumber@num,w
  5472     0EBD  00F4               	movwf	___lwmod@dividend
  5473     0EBE  120A  158A  2598  120A  158A  	fcall	___lwmod
  5474     0EC3  0872               	movf	?___lwmod,w
  5475     0EC4  3E30               	addlw	48
  5476     0EC5  1383               	bcf	3,7	;select IRP bank0
  5477     0EC6  0080               	movwf	0
  5478     0EC7                     l3113:
  5479     0EC7  3001               	movlw	1
  5480     0EC8  1283               	bcf	3,5	;RP0=0, select bank0
  5481     0EC9  1303               	bcf	3,6	;RP1=0, select bank0
  5482     0ECA  07AA               	addwf	LCD_WriteNumber@i,f
  5483     0ECB                     l3115:
  5484                           
  5485                           ;../HAL/LCD/LCD.c: 101:         num /= 10;
  5486     0ECB  300A               	movlw	10
  5487     0ECC  00F2               	movwf	___lwdiv@divisor
  5488     0ECD  3000               	movlw	0
  5489     0ECE  00F3               	movwf	___lwdiv@divisor+1
  5490     0ECF  0823               	movf	LCD_WriteNumber@num+1,w
  5491     0ED0  00F5               	movwf	___lwdiv@dividend+1
  5492     0ED1  0822               	movf	LCD_WriteNumber@num,w
  5493     0ED2  00F4               	movwf	___lwdiv@dividend
  5494     0ED3  120A  158A  260B  120A  158A  	fcall	___lwdiv
  5495     0ED8  0873               	movf	?___lwdiv+1,w
  5496     0ED9  1283               	bcf	3,5	;RP0=0, select bank0
  5497     0EDA  1303               	bcf	3,6	;RP1=0, select bank0
  5498     0EDB  00A3               	movwf	LCD_WriteNumber@num+1
  5499     0EDC  0872               	movf	?___lwdiv,w
  5500     0EDD  00A2               	movwf	LCD_WriteNumber@num
  5501     0EDE                     l3117:
  5502                           
  5503                           ;../HAL/LCD/LCD.c: 99:     while (num > 0) {
  5504     0EDE  0822               	movf	LCD_WriteNumber@num,w
  5505     0EDF  0423               	iorwf	LCD_WriteNumber@num+1,w
  5506     0EE0  1D03               	btfss	3,2
  5507     0EE1  2EE3               	goto	u2761
  5508     0EE2  2EE4               	goto	u2760
  5509     0EE3                     u2761:
  5510     0EE3  2EB3               	goto	l3111
  5511     0EE4                     u2760:
  5512     0EE4  2EF1               	goto	l3121
  5513     0EE5                     l3119:
  5514                           
  5515                           ;../HAL/LCD/LCD.c: 104:         LCD_WriteChar(buf[--i]);
  5516     0EE5  3001               	movlw	1
  5517     0EE6  02AA               	subwf	LCD_WriteNumber@i,f
  5518     0EE7  082A               	movf	LCD_WriteNumber@i,w
  5519     0EE8  3E24               	addlw	(low (LCD_WriteNumber@buf| 0))& (0+255)
  5520     0EE9  0084               	movwf	4
  5521     0EEA  1383               	bcf	3,7	;select IRP bank0
  5522     0EEB  0800               	movf	0,w
  5523     0EEC  120A  158A  2430  120A  158A  	fcall	_LCD_WriteChar
  5524     0EF1                     l3121:
  5525                           
  5526                           ;../HAL/LCD/LCD.c: 103:     while (i > 0) {
  5527     0EF1  1283               	bcf	3,5	;RP0=0, select bank0
  5528     0EF2  1303               	bcf	3,6	;RP1=0, select bank0
  5529     0EF3  082A               	movf	LCD_WriteNumber@i,w
  5530     0EF4  1D03               	btfss	3,2
  5531     0EF5  2EF7               	goto	u2771
  5532     0EF6  2EF8               	goto	u2770
  5533     0EF7                     u2771:
  5534     0EF7  2EE5               	goto	l3119
  5535     0EF8                     u2770:
  5536     0EF8                     l409:
  5537     0EF8  0008               	return
  5538     0EF9                     __end_of_LCD_WriteNumber:
  5539                           
  5540                           	psect	text27
  5541     0D98                     __ptext27:	
  5542 ;; *************** function ___lwmod *****************
  5543 ;; Defined at:
  5544 ;;		line 5 in file "C:\Program Files\Microchip\xc8\v3.10\pic\sources\c99\common\lwmod.c"
  5545 ;; Parameters:    Size  Location     Type
  5546 ;;  divisor         2    2[COMMON] unsigned int 
  5547 ;;  dividend        2    4[COMMON] unsigned int 
  5548 ;; Auto vars:     Size  Location     Type
  5549 ;;  counter         1    6[COMMON] unsigned char 
  5550 ;; Return value:  Size  Location     Type
  5551 ;;                  2    2[COMMON] unsigned int 
  5552 ;; Registers used:
  5553 ;;		wreg, status,2, status,0
  5554 ;; Tracked objects:
  5555 ;;		On entry : 0/0
  5556 ;;		On exit  : 0/0
  5557 ;;		Unchanged: 0/0
  5558 ;; Data sizes:     COMMON   BANK0   BANK1   BANK3   BANK2
  5559 ;;      Params:         4       0       0       0       0
  5560 ;;      Locals:         1       0       0       0       0
  5561 ;;      Temps:          0       0       0       0       0
  5562 ;;      Totals:         5       0       0       0       0
  5563 ;;Total ram usage:        5 bytes
  5564 ;; Hardware stack levels used: 1
  5565 ;; Hardware stack levels required when called: 1
  5566 ;; This function calls:
  5567 ;;		Nothing
  5568 ;; This function is called by:
  5569 ;;		_UART_SendUInt
  5570 ;;		_LCD_WriteNumber
  5571 ;;		_BT_Send3Digit
  5572 ;; This function uses a non-reentrant model
  5573 ;;
  5574                           
  5575     0D98                     ___lwmod:	
  5576                           ;psect for function ___lwmod
  5577                           
  5578     0D98                     l2275:	
  5579                           ;incstack = 0
  5580                           ; Regs used in ___lwmod: [wreg+status,2+status,0]
  5581                           
  5582     0D98  0872               	movf	___lwmod@divisor,w
  5583     0D99  0473               	iorwf	___lwmod@divisor+1,w
  5584     0D9A  1903               	btfsc	3,2
  5585     0D9B  2D9D               	goto	u1701
  5586     0D9C  2D9E               	goto	u1700
  5587     0D9D                     u1701:
  5588     0D9D  2DCB               	goto	l2293
  5589     0D9E                     u1700:
  5590     0D9E                     l2277:
  5591     0D9E  3001               	movlw	1
  5592     0D9F  00F6               	movwf	___lwmod@counter
  5593     0DA0  2DAA               	goto	l2283
  5594     0DA1                     l2279:
  5595     0DA1  3001               	movlw	1
  5596     0DA2                     u1715:
  5597     0DA2  1003               	clrc
  5598     0DA3  0DF2               	rlf	___lwmod@divisor,f
  5599     0DA4  0DF3               	rlf	___lwmod@divisor+1,f
  5600     0DA5  3EFF               	addlw	-1
  5601     0DA6  1D03               	skipz
  5602     0DA7  2DA2               	goto	u1715
  5603     0DA8                     l2281:
  5604     0DA8  3001               	movlw	1
  5605     0DA9  07F6               	addwf	___lwmod@counter,f
  5606     0DAA                     l2283:
  5607     0DAA  1FF3               	btfss	___lwmod@divisor+1,7
  5608     0DAB  2DAD               	goto	u1721
  5609     0DAC  2DAE               	goto	u1720
  5610     0DAD                     u1721:
  5611     0DAD  2DA1               	goto	l2279
  5612     0DAE                     u1720:
  5613     0DAE                     l2285:
  5614     0DAE  0873               	movf	___lwmod@divisor+1,w
  5615     0DAF  0275               	subwf	___lwmod@dividend+1,w
  5616     0DB0  1D03               	skipz
  5617     0DB1  2DB4               	goto	u1735
  5618     0DB2  0872               	movf	___lwmod@divisor,w
  5619     0DB3  0274               	subwf	___lwmod@dividend,w
  5620     0DB4                     u1735:
  5621     0DB4  1C03               	skipc
  5622     0DB5  2DB7               	goto	u1731
  5623     0DB6  2DB8               	goto	u1730
  5624     0DB7                     u1731:
  5625     0DB7  2DBE               	goto	l2289
  5626     0DB8                     u1730:
  5627     0DB8                     l2287:
  5628     0DB8  0872               	movf	___lwmod@divisor,w
  5629     0DB9  02F4               	subwf	___lwmod@dividend,f
  5630     0DBA  0873               	movf	___lwmod@divisor+1,w
  5631     0DBB  1C03               	skipc
  5632     0DBC  03F5               	decf	___lwmod@dividend+1,f
  5633     0DBD  02F5               	subwf	___lwmod@dividend+1,f
  5634     0DBE                     l2289:
  5635     0DBE  3001               	movlw	1
  5636     0DBF                     u1745:
  5637     0DBF  1003               	clrc
  5638     0DC0  0CF3               	rrf	___lwmod@divisor+1,f
  5639     0DC1  0CF2               	rrf	___lwmod@divisor,f
  5640     0DC2  3EFF               	addlw	-1
  5641     0DC3  1D03               	skipz
  5642     0DC4  2DBF               	goto	u1745
  5643     0DC5                     l2291:
  5644     0DC5  3001               	movlw	1
  5645     0DC6  02F6               	subwf	___lwmod@counter,f
  5646     0DC7  1D03               	btfss	3,2
  5647     0DC8  2DCA               	goto	u1751
  5648     0DC9  2DCB               	goto	u1750
  5649     0DCA                     u1751:
  5650     0DCA  2DAE               	goto	l2285
  5651     0DCB                     u1750:
  5652     0DCB                     l2293:
  5653     0DCB  0875               	movf	___lwmod@dividend+1,w
  5654     0DCC  00F3               	movwf	?___lwmod+1
  5655     0DCD  0874               	movf	___lwmod@dividend,w
  5656     0DCE  00F2               	movwf	?___lwmod
  5657     0DCF                     l981:
  5658     0DCF  0008               	return
  5659     0DD0                     __end_of___lwmod:
  5660                           
  5661                           	psect	text28
  5662     0E0B                     __ptext28:	
  5663 ;; *************** function ___lwdiv *****************
  5664 ;; Defined at:
  5665 ;;		line 5 in file "C:\Program Files\Microchip\xc8\v3.10\pic\sources\c99\common\lwdiv.c"
  5666 ;; Parameters:    Size  Location     Type
  5667 ;;  divisor         2    2[COMMON] unsigned int 
  5668 ;;  dividend        2    4[COMMON] unsigned int 
  5669 ;; Auto vars:     Size  Location     Type
  5670 ;;  quotient        2    6[COMMON] unsigned int 
  5671 ;;  counter         1    8[COMMON] unsigned char 
  5672 ;; Return value:  Size  Location     Type
  5673 ;;                  2    2[COMMON] unsigned int 
  5674 ;; Registers used:
  5675 ;;		wreg, status,2, status,0
  5676 ;; Tracked objects:
  5677 ;;		On entry : 0/0
  5678 ;;		On exit  : 0/0
  5679 ;;		Unchanged: 0/0
  5680 ;; Data sizes:     COMMON   BANK0   BANK1   BANK3   BANK2
  5681 ;;      Params:         4       0       0       0       0
  5682 ;;      Locals:         3       0       0       0       0
  5683 ;;      Temps:          0       0       0       0       0
  5684 ;;      Totals:         7       0       0       0       0
  5685 ;;Total ram usage:        7 bytes
  5686 ;; Hardware stack levels used: 1
  5687 ;; Hardware stack levels required when called: 1
  5688 ;; This function calls:
  5689 ;;		Nothing
  5690 ;; This function is called by:
  5691 ;;		_UART_SendUInt
  5692 ;;		_LCD_WriteNumber
  5693 ;;		_SR04_GetDistance
  5694 ;;		_BT_Send3Digit
  5695 ;; This function uses a non-reentrant model
  5696 ;;
  5697                           
  5698     0E0B                     ___lwdiv:	
  5699                           ;psect for function ___lwdiv
  5700                           
  5701     0E0B                     l2249:	
  5702                           ;incstack = 0
  5703                           ; Regs used in ___lwdiv: [wreg+status,2+status,0]
  5704                           
  5705     0E0B  01F6               	clrf	___lwdiv@quotient
  5706     0E0C  01F7               	clrf	___lwdiv@quotient+1
  5707     0E0D                     l2251:
  5708     0E0D  0872               	movf	___lwdiv@divisor,w
  5709     0E0E  0473               	iorwf	___lwdiv@divisor+1,w
  5710     0E0F  1903               	btfsc	3,2
  5711     0E10  2E12               	goto	u1631
  5712     0E11  2E13               	goto	u1630
  5713     0E12                     u1631:
  5714     0E12  2E48               	goto	l2271
  5715     0E13                     u1630:
  5716     0E13                     l2253:
  5717     0E13  3001               	movlw	1
  5718     0E14  00F8               	movwf	___lwdiv@counter
  5719     0E15  2E1F               	goto	l2259
  5720     0E16                     l2255:
  5721     0E16  3001               	movlw	1
  5722     0E17                     u1645:
  5723     0E17  1003               	clrc
  5724     0E18  0DF2               	rlf	___lwdiv@divisor,f
  5725     0E19  0DF3               	rlf	___lwdiv@divisor+1,f
  5726     0E1A  3EFF               	addlw	-1
  5727     0E1B  1D03               	skipz
  5728     0E1C  2E17               	goto	u1645
  5729     0E1D                     l2257:
  5730     0E1D  3001               	movlw	1
  5731     0E1E  07F8               	addwf	___lwdiv@counter,f
  5732     0E1F                     l2259:
  5733     0E1F  1FF3               	btfss	___lwdiv@divisor+1,7
  5734     0E20  2E22               	goto	u1651
  5735     0E21  2E23               	goto	u1650
  5736     0E22                     u1651:
  5737     0E22  2E16               	goto	l2255
  5738     0E23                     u1650:
  5739     0E23                     l2261:
  5740     0E23  3001               	movlw	1
  5741     0E24                     u1665:
  5742     0E24  1003               	clrc
  5743     0E25  0DF6               	rlf	___lwdiv@quotient,f
  5744     0E26  0DF7               	rlf	___lwdiv@quotient+1,f
  5745     0E27  3EFF               	addlw	-1
  5746     0E28  1D03               	skipz
  5747     0E29  2E24               	goto	u1665
  5748     0E2A  0873               	movf	___lwdiv@divisor+1,w
  5749     0E2B  0275               	subwf	___lwdiv@dividend+1,w
  5750     0E2C  1D03               	skipz
  5751     0E2D  2E30               	goto	u1675
  5752     0E2E  0872               	movf	___lwdiv@divisor,w
  5753     0E2F  0274               	subwf	___lwdiv@dividend,w
  5754     0E30                     u1675:
  5755     0E30  1C03               	skipc
  5756     0E31  2E33               	goto	u1671
  5757     0E32  2E34               	goto	u1670
  5758     0E33                     u1671:
  5759     0E33  2E3B               	goto	l2267
  5760     0E34                     u1670:
  5761     0E34                     l2263:
  5762     0E34  0872               	movf	___lwdiv@divisor,w
  5763     0E35  02F4               	subwf	___lwdiv@dividend,f
  5764     0E36  0873               	movf	___lwdiv@divisor+1,w
  5765     0E37  1C03               	skipc
  5766     0E38  03F5               	decf	___lwdiv@dividend+1,f
  5767     0E39  02F5               	subwf	___lwdiv@dividend+1,f
  5768     0E3A                     l2265:
  5769     0E3A  1476               	bsf	___lwdiv@quotient,0
  5770     0E3B                     l2267:
  5771     0E3B  3001               	movlw	1
  5772     0E3C                     u1685:
  5773     0E3C  1003               	clrc
  5774     0E3D  0CF3               	rrf	___lwdiv@divisor+1,f
  5775     0E3E  0CF2               	rrf	___lwdiv@divisor,f
  5776     0E3F  3EFF               	addlw	-1
  5777     0E40  1D03               	skipz
  5778     0E41  2E3C               	goto	u1685
  5779     0E42                     l2269:
  5780     0E42  3001               	movlw	1
  5781     0E43  02F8               	subwf	___lwdiv@counter,f
  5782     0E44  1D03               	btfss	3,2
  5783     0E45  2E47               	goto	u1691
  5784     0E46  2E48               	goto	u1690
  5785     0E47                     u1691:
  5786     0E47  2E23               	goto	l2261
  5787     0E48                     u1690:
  5788     0E48                     l2271:
  5789     0E48  0877               	movf	___lwdiv@quotient+1,w
  5790     0E49  00F3               	movwf	?___lwdiv+1
  5791     0E4A  0876               	movf	___lwdiv@quotient,w
  5792     0E4B  00F2               	movwf	?___lwdiv
  5793     0E4C                     l971:
  5794     0E4C  0008               	return
  5795     0E4D                     __end_of___lwdiv:
  5796                           
  5797                           	psect	text29
  5798     0C30                     __ptext29:	
  5799 ;; *************** function _LCD_WriteChar *****************
  5800 ;; Defined at:
  5801 ;;		line 81 in file "../HAL/LCD/LCD.c"
  5802 ;; Parameters:    Size  Location     Type
  5803 ;;  c               1    wreg     unsigned char 
  5804 ;; Auto vars:     Size  Location     Type
  5805 ;;  c               1    1[BANK0 ] unsigned char 
  5806 ;; Return value:  Size  Location     Type
  5807 ;;                  1    wreg      void 
  5808 ;; Registers used:
  5809 ;;		wreg, status,2, status,0, pclath, cstack
  5810 ;; Tracked objects:
  5811 ;;		On entry : 0/0
  5812 ;;		On exit  : 0/0
  5813 ;;		Unchanged: 0/0
  5814 ;; Data sizes:     COMMON   BANK0   BANK1   BANK3   BANK2
  5815 ;;      Params:         0       0       0       0       0
  5816 ;;      Locals:         0       1       0       0       0
  5817 ;;      Temps:          0       0       0       0       0
  5818 ;;      Totals:         0       1       0       0       0
  5819 ;;Total ram usage:        1 bytes
  5820 ;; Hardware stack levels used: 1
  5821 ;; Hardware stack levels required when called: 5
  5822 ;; This function calls:
  5823 ;;		_LCD_Send_Byte
  5824 ;; This function is called by:
  5825 ;;		_LCD_WriteNumber
  5826 ;; This function uses a non-reentrant model
  5827 ;;
  5828                           
  5829     0C30                     _LCD_WriteChar:	
  5830                           ;psect for function _LCD_WriteChar
  5831                           
  5832                           
  5833                           ;incstack = 0
  5834                           ; Regs used in _LCD_WriteChar: [wreg+status,2+status,0+pclath+cstack]
  5835                           ;LCD_WriteChar@c stored from wreg
  5836     0C30  1283               	bcf	3,5	;RP0=0, select bank0
  5837     0C31  1303               	bcf	3,6	;RP1=0, select bank0
  5838     0C32  00A1               	movwf	LCD_WriteChar@c
  5839     0C33                     l3045:
  5840                           
  5841                           ;../HAL/LCD/LCD.c: 82:     LCD_Send_Byte(c, 1);
  5842     0C33  01F7               	clrf	LCD_Send_Byte@rs
  5843     0C34  0AF7               	incf	LCD_Send_Byte@rs,f
  5844     0C35  0821               	movf	LCD_WriteChar@c,w
  5845     0C36  120A  158A  25D0  120A  158A  	fcall	_LCD_Send_Byte
  5846     0C3B                     l399:
  5847     0C3B  0008               	return
  5848     0C3C                     __end_of_LCD_WriteChar:
  5849                           
  5850                           	psect	text30
  5851     0DD0                     __ptext30:	
  5852 ;; *************** function _LCD_Send_Byte *****************
  5853 ;; Defined at:
  5854 ;;		line 41 in file "../HAL/LCD/LCD.c"
  5855 ;; Parameters:    Size  Location     Type
  5856 ;;  data            1    wreg     unsigned char 
  5857 ;;  rs              1    7[COMMON] unsigned char 
  5858 ;; Auto vars:     Size  Location     Type
  5859 ;;  data            1    0[BANK0 ] unsigned char 
  5860 ;; Return value:  Size  Location     Type
  5861 ;;                  1    wreg      void 
  5862 ;; Registers used:
  5863 ;;		wreg, status,2, status,0, pclath, cstack
  5864 ;; Tracked objects:
  5865 ;;		On entry : 0/0
  5866 ;;		On exit  : 0/0
  5867 ;;		Unchanged: 0/0
  5868 ;; Data sizes:     COMMON   BANK0   BANK1   BANK3   BANK2
  5869 ;;      Params:         1       0       0       0       0
  5870 ;;      Locals:         0       1       0       0       0
  5871 ;;      Temps:          2       0       0       0       0
  5872 ;;      Totals:         3       1       0       0       0
  5873 ;;Total ram usage:        4 bytes
  5874 ;; Hardware stack levels used: 1
  5875 ;; Hardware stack levels required when called: 1
  5876 ;; This function calls:
  5877 ;;		_LCD_Send_Nibble
  5878 ;; This function is called by:
  5879 ;;		_LCD_Init
  5880 ;;		_LCD_Clear
  5881 ;;		_LCD_SetCursor
  5882 ;;		_LCD_WriteChar
  5883 ;;		_LCD_WriteString
  5884 ;; This function uses a non-reentrant model
  5885 ;;
  5886                           
  5887     0DD0                     _LCD_Send_Byte:	
  5888                           ;psect for function _LCD_Send_Byte
  5889                           
  5890                           
  5891                           ;incstack = 0
  5892                           ; Regs used in _LCD_Send_Byte: [wreg+status,2+status,0+pclath+cstack]
  5893                           ;LCD_Send_Byte@data stored from wreg
  5894     0DD0  1283               	bcf	3,5	;RP0=0, select bank0
  5895     0DD1  1303               	bcf	3,6	;RP1=0, select bank0
  5896     0DD2  00A0               	movwf	LCD_Send_Byte@data
  5897     0DD3                     l3035:
  5898                           
  5899                           ;../HAL/LCD/LCD.c: 42:     LCD_Send_Nibble((data >> 4) & 0x0F, rs);
  5900     0DD3  0877               	movf	LCD_Send_Byte@rs,w
  5901     0DD4  00F3               	movwf	LCD_Send_Nibble@rs
  5902     0DD5  0820               	movf	LCD_Send_Byte@data,w
  5903     0DD6  00F8               	movwf	??_LCD_Send_Byte
  5904     0DD7  3004               	movlw	4
  5905     0DD8                     u2605:
  5906     0DD8  1003               	clrc
  5907     0DD9  0CF8               	rrf	??_LCD_Send_Byte,f
  5908     0DDA  3EFF               	addlw	-1
  5909     0DDB  1D03               	skipz
  5910     0DDC  2DD8               	goto	u2605
  5911     0DDD  0878               	movf	??_LCD_Send_Byte,w
  5912     0DDE  390F               	andlw	15
  5913     0DDF  120A  158A  264D  120A  158A  	fcall	_LCD_Send_Nibble
  5914                           
  5915                           ;../HAL/LCD/LCD.c: 43:     LCD_Send_Nibble(data & 0x0F, rs);
  5916     0DE4  0877               	movf	LCD_Send_Byte@rs,w
  5917     0DE5  00F3               	movwf	LCD_Send_Nibble@rs
  5918     0DE6  1283               	bcf	3,5	;RP0=0, select bank0
  5919     0DE7  1303               	bcf	3,6	;RP1=0, select bank0
  5920     0DE8  0820               	movf	LCD_Send_Byte@data,w
  5921     0DE9  390F               	andlw	15
  5922     0DEA  120A  158A  264D  120A  158A  	fcall	_LCD_Send_Nibble
  5923     0DEF                     l3037:
  5924                           
  5925                           ;../HAL/LCD/LCD.c: 45:     if (data == 0x01 || data == 0x02) {
  5926     0DEF  1283               	bcf	3,5	;RP0=0, select bank0
  5927     0DF0  1303               	bcf	3,6	;RP1=0, select bank0
  5928     0DF1  0320               	decf	LCD_Send_Byte@data,w
  5929     0DF2  1903               	btfsc	3,2
  5930     0DF3  2DF5               	goto	u2611
  5931     0DF4  2DF6               	goto	u2610
  5932     0DF5                     u2611:
  5933     0DF5  2DFC               	goto	l3041
  5934     0DF6                     u2610:
  5935     0DF6                     l3039:
  5936     0DF6  3002               	movlw	2
  5937     0DF7  0620               	xorwf	LCD_Send_Byte@data,w
  5938     0DF8  1D03               	btfss	3,2
  5939     0DF9  2DFB               	goto	u2621
  5940     0DFA  2DFC               	goto	u2620
  5941     0DFB                     u2621:
  5942     0DFB  2E06               	goto	l3043
  5943     0DFC                     u2620:
  5944     0DFC                     l3041:
  5945                           
  5946                           ;../HAL/LCD/LCD.c: 46:         _delay((unsigned long)((2)*(20000000UL/4000.0)));
  5947     0DFC  300D               	movlw	13
  5948     0DFD  00F9               	movwf	??_LCD_Send_Byte+1
  5949     0DFE  30FB               	movlw	251
  5950     0DFF  00F8               	movwf	??_LCD_Send_Byte
  5951     0E00                     u3557:
  5952     0E00  0BF8               	decfsz	??_LCD_Send_Byte,f
  5953     0E01  2E00               	goto	u3557
  5954     0E02  0BF9               	decfsz	??_LCD_Send_Byte+1,f
  5955     0E03  2E00               	goto	u3557
  5956     0E04  2E05               	nop2
  5957                           
  5958                           ;../HAL/LCD/LCD.c: 47:     } else {
  5959     0E05  2E0A               	goto	l383
  5960     0E06                     l3043:
  5961                           
  5962                           ;../HAL/LCD/LCD.c: 48:         _delay((unsigned long)((50)*(20000000UL/4000000.0)));
  5963     0E06  3053               	movlw	83
  5964     0E07  00F8               	movwf	??_LCD_Send_Byte
  5965     0E08                     u3567:
  5966     0E08  0BF8               	decfsz	??_LCD_Send_Byte,f
  5967     0E09  2E08               	goto	u3567
  5968     0E0A                     l383:
  5969     0E0A  0008               	return
  5970     0E0B                     __end_of_LCD_Send_Byte:
  5971                           
  5972                           	psect	text31
  5973     0E4D                     __ptext31:	
  5974 ;; *************** function _LCD_Send_Nibble *****************
  5975 ;; Defined at:
  5976 ;;		line 26 in file "../HAL/LCD/LCD.c"
  5977 ;; Parameters:    Size  Location     Type
  5978 ;;  nibble          1    wreg     unsigned char 
  5979 ;;  rs              1    3[COMMON] unsigned char 
  5980 ;; Auto vars:     Size  Location     Type
  5981 ;;  nibble          1    6[COMMON] unsigned char 
  5982 ;;  byte_val        1    5[COMMON] unsigned char 
  5983 ;; Return value:  Size  Location     Type
  5984 ;;                  1    wreg      void 
  5985 ;; Registers used:
  5986 ;;		wreg, status,2, status,0, pclath, cstack
  5987 ;; Tracked objects:
  5988 ;;		On entry : 0/0
  5989 ;;		On exit  : 0/0
  5990 ;;		Unchanged: 0/0
  5991 ;; Data sizes:     COMMON   BANK0   BANK1   BANK3   BANK2
  5992 ;;      Params:         1       0       0       0       0
  5993 ;;      Locals:         2       0       0       0       0
  5994 ;;      Temps:          1       0       0       0       0
  5995 ;;      Totals:         4       0       0       0       0
  5996 ;;Total ram usage:        4 bytes
  5997 ;; Hardware stack levels used: 1
  5998 ;; Hardware stack levels required when called: 1
  5999 ;; This function calls:
  6000 ;;		_I2C_Master_Start
  6001 ;;		_I2C_Master_Stop
  6002 ;;		_I2C_Master_Write
  6003 ;; This function is called by:
  6004 ;;		_LCD_Send_Byte
  6005 ;;		_LCD_Init
  6006 ;; This function uses a non-reentrant model
  6007 ;;
  6008                           
  6009     0E4D                     _LCD_Send_Nibble:	
  6010                           ;psect for function _LCD_Send_Nibble
  6011                           
  6012                           
  6013                           ;incstack = 0
  6014                           ; Regs used in _LCD_Send_Nibble: [wreg+status,2+status,0+pclath+cstack]
  6015                           ;LCD_Send_Nibble@nibble stored from wreg
  6016     0E4D  00F6               	movwf	LCD_Send_Nibble@nibble
  6017     0E4E                     l3007:
  6018                           
  6019                           ;../HAL/LCD/LCD.c: 27:     u8 byte_val = lcd_backlight;
  6020     0E4E  1283               	bcf	3,5	;RP0=0, select bank0
  6021     0E4F  1303               	bcf	3,6	;RP1=0, select bank0
  6022     0E50  084B               	movf	_lcd_backlight,w
  6023     0E51  00F5               	movwf	LCD_Send_Nibble@byte_val
  6024     0E52                     l3009:
  6025                           
  6026                           ;../HAL/LCD/LCD.c: 28:     if (rs) byte_val |= (1 << 0);
  6027     0E52  0873               	movf	LCD_Send_Nibble@rs,w
  6028     0E53  1903               	btfsc	3,2
  6029     0E54  2E56               	goto	u2551
  6030     0E55  2E57               	goto	u2550
  6031     0E56                     u2551:
  6032     0E56  2E58               	goto	l365
  6033     0E57                     u2550:
  6034     0E57                     l3011:
  6035     0E57  1475               	bsf	LCD_Send_Nibble@byte_val,0
  6036     0E58                     l365:
  6037                           
  6038                           ;../HAL/LCD/LCD.c: 30:     if (nibble & 0x01) byte_val |= (1 << 4);
  6039     0E58  1C76               	btfss	LCD_Send_Nibble@nibble,0
  6040     0E59  2E5B               	goto	u2561
  6041     0E5A  2E5C               	goto	u2560
  6042     0E5B                     u2561:
  6043     0E5B  2E5D               	goto	l366
  6044     0E5C                     u2560:
  6045     0E5C                     l3013:
  6046     0E5C  1675               	bsf	LCD_Send_Nibble@byte_val,4
  6047     0E5D                     l366:
  6048                           
  6049                           ;../HAL/LCD/LCD.c: 31:     if (nibble & 0x02) byte_val |= (1 << 5);
  6050     0E5D  1CF6               	btfss	LCD_Send_Nibble@nibble,1
  6051     0E5E  2E60               	goto	u2571
  6052     0E5F  2E61               	goto	u2570
  6053     0E60                     u2571:
  6054     0E60  2E62               	goto	l367
  6055     0E61                     u2570:
  6056     0E61                     l3015:
  6057     0E61  16F5               	bsf	LCD_Send_Nibble@byte_val,5
  6058     0E62                     l367:
  6059                           
  6060                           ;../HAL/LCD/LCD.c: 32:     if (nibble & 0x04) byte_val |= (1 << 6);
  6061     0E62  1D76               	btfss	LCD_Send_Nibble@nibble,2
  6062     0E63  2E65               	goto	u2581
  6063     0E64  2E66               	goto	u2580
  6064     0E65                     u2581:
  6065     0E65  2E67               	goto	l368
  6066     0E66                     u2580:
  6067     0E66                     l3017:
  6068     0E66  1775               	bsf	LCD_Send_Nibble@byte_val,6
  6069     0E67                     l368:
  6070                           
  6071                           ;../HAL/LCD/LCD.c: 33:     if (nibble & 0x08) byte_val |= (1 << 7);
  6072     0E67  1DF6               	btfss	LCD_Send_Nibble@nibble,3
  6073     0E68  2E6A               	goto	u2591
  6074     0E69  2E6B               	goto	u2590
  6075     0E6A                     u2591:
  6076     0E6A  2E6C               	goto	l3021
  6077     0E6B                     u2590:
  6078     0E6B                     l3019:
  6079     0E6B  17F5               	bsf	LCD_Send_Nibble@byte_val,7
  6080     0E6C                     l3021:
  6081     0E6C  120A  158A  2408  120A  158A  	fcall	_I2C_Master_Start
  6082     0E71  304E               	movlw	78
  6083     0E72  120A  158A  241A  120A  158A  	fcall	_I2C_Master_Write
  6084     0E77  0875               	movf	LCD_Send_Nibble@byte_val,w
  6085     0E78  3804               	iorlw	4
  6086     0E79  120A  158A  241A  120A  158A  	fcall	_I2C_Master_Write
  6087     0E7E  120A  158A  2411  120A  158A  	fcall	_I2C_Master_Stop
  6088     0E83                     l3023:
  6089     0E83  3003               	movlw	3
  6090     0E84  00F4               	movwf	??_LCD_Send_Nibble
  6091     0E85                     u3577:
  6092     0E85  0BF4               	decfsz	??_LCD_Send_Nibble,f
  6093     0E86  2E85               	goto	u3577
  6094     0E87                     l3025:
  6095     0E87  120A  158A  2408  120A  158A  	fcall	_I2C_Master_Start
  6096     0E8C                     l3027:
  6097     0E8C  304E               	movlw	78
  6098     0E8D  120A  158A  241A  120A  158A  	fcall	_I2C_Master_Write
  6099     0E92                     l3029:
  6100     0E92  0875               	movf	LCD_Send_Nibble@byte_val,w
  6101     0E93  39FB               	andlw	251
  6102     0E94  120A  158A  241A  120A  158A  	fcall	_I2C_Master_Write
  6103     0E99                     l3031:
  6104     0E99  120A  158A  2411  120A  158A  	fcall	_I2C_Master_Stop
  6105     0E9E                     l3033:
  6106     0E9E  3053               	movlw	83
  6107     0E9F  00F4               	movwf	??_LCD_Send_Nibble
  6108     0EA0                     u3587:
  6109     0EA0  0BF4               	decfsz	??_LCD_Send_Nibble,f
  6110     0EA1  2EA0               	goto	u3587
  6111     0EA2                     l376:
  6112     0EA2  0008               	return
  6113     0EA3                     __end_of_LCD_Send_Nibble:
  6114                           
  6115                           	psect	text32
  6116     0C1A                     __ptext32:	
  6117 ;; *************** function _I2C_Master_Write *****************
  6118 ;; Defined at:
  6119 ;;		line 52 in file "../MCAL/I2C/I2C.c"
  6120 ;; Parameters:    Size  Location     Type
  6121 ;;  data            1    wreg     unsigned char 
  6122 ;; Auto vars:     Size  Location     Type
  6123 ;;  data            1    2[COMMON] unsigned char 
  6124 ;; Return value:  Size  Location     Type
  6125 ;;                  1    wreg      void 
  6126 ;; Registers used:
  6127 ;;		wreg, status,2, status,0, pclath, cstack
  6128 ;; Tracked objects:
  6129 ;;		On entry : 0/0
  6130 ;;		On exit  : 0/0
  6131 ;;		Unchanged: 0/0
  6132 ;; Data sizes:     COMMON   BANK0   BANK1   BANK3   BANK2
  6133 ;;      Params:         0       0       0       0       0
  6134 ;;      Locals:         1       0       0       0       0
  6135 ;;      Temps:          0       0       0       0       0
  6136 ;;      Totals:         1       0       0       0       0
  6137 ;;Total ram usage:        1 bytes
  6138 ;; Hardware stack levels used: 1
  6139 ;; Hardware stack levels required when called: 2
  6140 ;; This function calls:
  6141 ;;		_I2C_Master_Wait
  6142 ;; This function is called by:
  6143 ;;		_LCD_Send_Nibble
  6144 ;;		_LCD_SetBacklight
  6145 ;; This function uses a non-reentrant model
  6146 ;;
  6147                           
  6148     0C1A                     _I2C_Master_Write:	
  6149                           ;psect for function _I2C_Master_Write
  6150                           
  6151                           
  6152                           ;incstack = 0
  6153                           ; Regs used in _I2C_Master_Write: [wreg+status,2+status,0+pclath+cstack]
  6154                           ;I2C_Master_Write@data stored from wreg
  6155     0C1A  00F2               	movwf	I2C_Master_Write@data
  6156     0C1B                     l3003:
  6157                           
  6158                           ;../MCAL/I2C/I2C.c: 53:     I2C_Master_Wait();
  6159     0C1B  120A  158A  2454  120A  158A  	fcall	_I2C_Master_Wait
  6160     0C20                     l3005:
  6161                           
  6162                           ;../MCAL/I2C/I2C.c: 54:     SSPBUF = data;
  6163     0C20  0872               	movf	I2C_Master_Write@data,w
  6164     0C21  1283               	bcf	3,5	;RP0=0, select bank0
  6165     0C22  1303               	bcf	3,6	;RP1=0, select bank0
  6166     0C23  0093               	movwf	19	;volatile
  6167     0C24                     l208:
  6168     0C24  0008               	return
  6169     0C25                     __end_of_I2C_Master_Write:
  6170                           
  6171                           	psect	text33
  6172     0C11                     __ptext33:	
  6173 ;; *************** function _I2C_Master_Stop *****************
  6174 ;; Defined at:
  6175 ;;		line 47 in file "../MCAL/I2C/I2C.c"
  6176 ;; Parameters:    Size  Location     Type
  6177 ;;		None
  6178 ;; Auto vars:     Size  Location     Type
  6179 ;;		None
  6180 ;; Return value:  Size  Location     Type
  6181 ;;                  1    wreg      void 
  6182 ;; Registers used:
  6183 ;;		wreg, status,2, status,0, pclath, cstack
  6184 ;; Tracked objects:
  6185 ;;		On entry : 0/0
  6186 ;;		On exit  : 0/0
  6187 ;;		Unchanged: 0/0
  6188 ;; Data sizes:     COMMON   BANK0   BANK1   BANK3   BANK2
  6189 ;;      Params:         0       0       0       0       0
  6190 ;;      Locals:         0       0       0       0       0
  6191 ;;      Temps:          0       0       0       0       0
  6192 ;;      Totals:         0       0       0       0       0
  6193 ;;Total ram usage:        0 bytes
  6194 ;; Hardware stack levels used: 1
  6195 ;; Hardware stack levels required when called: 2
  6196 ;; This function calls:
  6197 ;;		_I2C_Master_Wait
  6198 ;; This function is called by:
  6199 ;;		_LCD_Send_Nibble
  6200 ;;		_LCD_SetBacklight
  6201 ;; This function uses a non-reentrant model
  6202 ;;
  6203                           
  6204     0C11                     _I2C_Master_Stop:	
  6205                           ;psect for function _I2C_Master_Stop
  6206                           
  6207     0C11                     l2999:	
  6208                           ;incstack = 0
  6209                           ; Regs used in _I2C_Master_Stop: [wreg+status,2+status,0+pclath+cstack]
  6210                           
  6211                           
  6212                           ;../MCAL/I2C/I2C.c: 48:     I2C_Master_Wait();
  6213     0C11  120A  158A  2454  120A  158A  	fcall	_I2C_Master_Wait
  6214     0C16                     l3001:
  6215                           
  6216                           ;../MCAL/I2C/I2C.c: 49:     SSPCON2bits.PEN = 1;
  6217     0C16  1683               	bsf	3,5	;RP0=1, select bank1
  6218     0C17  1303               	bcf	3,6	;RP1=0, select bank1
  6219     0C18  1511               	bsf	17,2	;volatile
  6220     0C19                     l205:
  6221     0C19  0008               	return
  6222     0C1A                     __end_of_I2C_Master_Stop:
  6223                           
  6224                           	psect	text34
  6225     0C08                     __ptext34:	
  6226 ;; *************** function _I2C_Master_Start *****************
  6227 ;; Defined at:
  6228 ;;		line 37 in file "../MCAL/I2C/I2C.c"
  6229 ;; Parameters:    Size  Location     Type
  6230 ;;		None
  6231 ;; Auto vars:     Size  Location     Type
  6232 ;;		None
  6233 ;; Return value:  Size  Location     Type
  6234 ;;                  1    wreg      void 
  6235 ;; Registers used:
  6236 ;;		wreg, status,2, status,0, pclath, cstack
  6237 ;; Tracked objects:
  6238 ;;		On entry : 0/0
  6239 ;;		On exit  : 0/0
  6240 ;;		Unchanged: 0/0
  6241 ;; Data sizes:     COMMON   BANK0   BANK1   BANK3   BANK2
  6242 ;;      Params:         0       0       0       0       0
  6243 ;;      Locals:         0       0       0       0       0
  6244 ;;      Temps:          0       0       0       0       0
  6245 ;;      Totals:         0       0       0       0       0
  6246 ;;Total ram usage:        0 bytes
  6247 ;; Hardware stack levels used: 1
  6248 ;; Hardware stack levels required when called: 2
  6249 ;; This function calls:
  6250 ;;		_I2C_Master_Wait
  6251 ;; This function is called by:
  6252 ;;		_LCD_Send_Nibble
  6253 ;;		_LCD_SetBacklight
  6254 ;; This function uses a non-reentrant model
  6255 ;;
  6256                           
  6257     0C08                     _I2C_Master_Start:	
  6258                           ;psect for function _I2C_Master_Start
  6259                           
  6260     0C08                     l2995:	
  6261                           ;incstack = 0
  6262                           ; Regs used in _I2C_Master_Start: [wreg+status,2+status,0+pclath+cstack]
  6263                           
  6264                           
  6265                           ;../MCAL/I2C/I2C.c: 38:     I2C_Master_Wait();
  6266     0C08  120A  158A  2454  120A  158A  	fcall	_I2C_Master_Wait
  6267     0C0D                     l2997:
  6268                           
  6269                           ;../MCAL/I2C/I2C.c: 39:     SSPCON2bits.SEN = 1;
  6270     0C0D  1683               	bsf	3,5	;RP0=1, select bank1
  6271     0C0E  1303               	bcf	3,6	;RP1=0, select bank1
  6272     0C0F  1411               	bsf	17,0	;volatile
  6273     0C10                     l199:
  6274     0C10  0008               	return
  6275     0C11                     __end_of_I2C_Master_Start:
  6276                           
  6277                           	psect	text35
  6278     0C54                     __ptext35:	
  6279 ;; *************** function _I2C_Master_Wait *****************
  6280 ;; Defined at:
  6281 ;;		line 31 in file "../MCAL/I2C/I2C.c"
  6282 ;; Parameters:    Size  Location     Type
  6283 ;;		None
  6284 ;; Auto vars:     Size  Location     Type
  6285 ;;		None
  6286 ;; Return value:  Size  Location     Type
  6287 ;;                  1    wreg      void 
  6288 ;; Registers used:
  6289 ;;		wreg, status,2
  6290 ;; Tracked objects:
  6291 ;;		On entry : 0/0
  6292 ;;		On exit  : 0/0
  6293 ;;		Unchanged: 0/0
  6294 ;; Data sizes:     COMMON   BANK0   BANK1   BANK3   BANK2
  6295 ;;      Params:         0       0       0       0       0
  6296 ;;      Locals:         0       0       0       0       0
  6297 ;;      Temps:          0       0       0       0       0
  6298 ;;      Totals:         0       0       0       0       0
  6299 ;;Total ram usage:        0 bytes
  6300 ;; Hardware stack levels used: 1
  6301 ;; Hardware stack levels required when called: 1
  6302 ;; This function calls:
  6303 ;;		Nothing
  6304 ;; This function is called by:
  6305 ;;		_I2C_Master_Start
  6306 ;;		_I2C_Master_Stop
  6307 ;;		_I2C_Master_Write
  6308 ;;		_I2C_Master_RepeatedStart
  6309 ;;		_I2C_Master_Read
  6310 ;; This function uses a non-reentrant model
  6311 ;;
  6312                           
  6313     0C54                     _I2C_Master_Wait:	
  6314                           ;psect for function _I2C_Master_Wait
  6315                           
  6316     0C54                     l2991:	
  6317                           ;incstack = 0
  6318                           ; Regs used in _I2C_Master_Wait: [wreg+status,2]
  6319                           
  6320     0C54                     l193:	
  6321                           ;../MCAL/I2C/I2C.c: 34:     while ((SSPSTAT & 0x04) || (SSPCON2 & 0x1F));
  6322                           
  6323     0C54  1683               	bsf	3,5	;RP0=1, select bank1
  6324     0C55  1303               	bcf	3,6	;RP1=0, select bank1
  6325     0C56  1914               	btfsc	20,2	;volatile
  6326     0C57  2C59               	goto	u2531
  6327     0C58  2C5A               	goto	u2530
  6328     0C59                     u2531:
  6329     0C59  2C54               	goto	l193
  6330     0C5A                     u2530:
  6331     0C5A                     l2993:
  6332     0C5A  0811               	movf	17,w	;volatile
  6333     0C5B  391F               	andlw	31
  6334     0C5C  1D03               	btfss	3,2
  6335     0C5D  2C5F               	goto	u2541
  6336     0C5E  2C60               	goto	u2540
  6337     0C5F                     u2541:
  6338     0C5F  2C54               	goto	l193
  6339     0C60                     u2540:
  6340     0C60                     l196:
  6341     0C60  0008               	return
  6342     0C61                     __end_of_I2C_Master_Wait:
  6343                           
  6344                           	psect	text36
  6345     0C7D                     __ptext36:	
  6346 ;; *************** function _ISR *****************
  6347 ;; Defined at:
  6348 ;;		line 24 in file "../MCAL/Interrupt_Manager/Interrupt_manager.c"
  6349 ;; Parameters:    Size  Location     Type
  6350 ;;		None
  6351 ;; Auto vars:     Size  Location     Type
  6352 ;;		None
  6353 ;; Return value:  Size  Location     Type
  6354 ;;                  1    wreg      void 
  6355 ;; Registers used:
  6356 ;;		None
  6357 ;; Tracked objects:
  6358 ;;		On entry : 0/0
  6359 ;;		On exit  : 0/0
  6360 ;;		Unchanged: 0/0
  6361 ;; Data sizes:     COMMON   BANK0   BANK1   BANK3   BANK2
  6362 ;;      Params:         0       0       0       0       0
  6363 ;;      Locals:         0       0       0       0       0
  6364 ;;      Temps:          2       0       0       0       0
  6365 ;;      Totals:         2       0       0       0       0
  6366 ;;Total ram usage:        2 bytes
  6367 ;; Hardware stack levels used: 1
  6368 ;; This function calls:
  6369 ;;		Nothing
  6370 ;; This function is called by:
  6371 ;;		Interrupt level 1
  6372 ;; This function uses a non-reentrant model
  6373 ;;
  6374                           
  6375     0C7D                     _ISR:	
  6376                           ;psect for function _ISR
  6377                           
  6378     0C7D                     i1l2607:
  6379                           
  6380                           ;../MCAL/Interrupt_Manager/Interrupt_manager.c: 27:     if (INTCONbits.INTF && INTCONbit
      +                          s.INTE)
  6381     0C7D  1C8B               	btfss	11,1	;volatile
  6382     0C7E  2C80               	goto	u216_21
  6383     0C7F  2C81               	goto	u216_20
  6384     0C80                     u216_21:
  6385     0C80  2C86               	goto	i1l167
  6386     0C81                     u216_20:
  6387     0C81                     i1l2609:
  6388     0C81  1E0B               	btfss	11,4	;volatile
  6389     0C82  2C84               	goto	u217_21
  6390     0C83  2C85               	goto	u217_20
  6391     0C84                     u217_21:
  6392     0C84  2C86               	goto	i1l167
  6393     0C85                     u217_20:
  6394     0C85                     i1l2611:
  6395                           
  6396                           ;../MCAL/Interrupt_Manager/Interrupt_manager.c: 28:     {;../MCAL/Interrupt_Manager/Inte
      +                          rrupt_manager.c: 29:         INTCONbits.INTF = 0;
  6397     0C85  108B               	bcf	11,1	;volatile
  6398     0C86                     i1l167:
  6399     0C86  0871               	movf	??_ISR+1,w
  6400     0C87  008A               	movwf	10
  6401     0C88  0E70               	swapf	??_ISR,w
  6402     0C89  0083               	movwf	3
  6403     0C8A  0EFE               	swapf	btemp,f
  6404     0C8B  0E7E               	swapf	btemp,w
  6405     0C8C  0009               	retfie
  6406     0C8D                     __end_of_ISR:
  6407     0002                     ___latbits      equ	2
  6408     007E                     btemp           set	126	;btemp
  6409     007E                     btemp0          set	126
  6410     007F                     btemp1          set	127
  6411     007E                     wtemp0          set	126
  6412     007F                     wtemp0a         set	127
  6413     007F                     ttemp0a         set	127
  6414     0080                     ltemp0a         set	128
  6415                           
  6416                           	psect	intentry
  6417     0004                     __pintentry:	
  6418                           ;incstack = 0
  6419                           ; Regs used in _ISR: []
  6420                           
  6421     0004                     interrupt_function:
  6422     007E                     saved_w         set	btemp
  6423     0004  00FE               	movwf	btemp
  6424     0005  0E03               	swapf	3,w
  6425     0006  00F0               	movwf	??_ISR
  6426     0007  080A               	movf	10,w
  6427     0008  00F1               	movwf	??_ISR+1
  6428     0009  120A  158A  2C7D   	ljmp	_ISR
  6429                           
  6430                           	psect	config
  6431                           
  6432                           ;Config register CONFIG @ 0x2007
  6433                           ;	Oscillator Selection bits
  6434                           ;	FOSC = HS, HS oscillator
  6435                           ;	Watchdog Timer Enable bit
  6436                           ;	WDTE = OFF, WDT disabled
  6437                           ;	Power-up Timer Enable bit
  6438                           ;	PWRTE = ON, PWRT enabled
  6439                           ;	Brown-out Reset Enable bit
  6440                           ;	BOREN = OFF, BOR disabled
  6441                           ;	Low-Voltage (Single-Supply) In-Circuit Serial Programming Enable bit
  6442                           ;	LVP = OFF, RB3 is digital I/O, HV on MCLR must be used for programming
  6443                           ;	Data EEPROM Memory Code Protection bit
  6444                           ;	CPD = 0x1, unprogrammed default
  6445                           ;	Flash Program Memory Write Enable bits
  6446                           ;	WRT = 0x3, unprogrammed default
  6447                           ;	In-Circuit Debugger Mode bit
  6448                           ;	DEBUG = 0x1, unprogrammed default
  6449                           ;	Flash Program Memory Code Protection bit
  6450                           ;	CP = 0x1, unprogrammed default
  6451     2007                     	org	8199
  6452     2007  3F32               	dw	16178

Data Sizes:
    Strings     411
    Constant    0
    Data        4
    BSS         3
    Persistent  0
    Stack       0

Auto Spaces:
    Space          Size  Autos    Used
    COMMON           14     10      12
    BANK0            80     40      45
    BANK1            80      0       0
    BANK3            96      0       0
    BANK2            96      0       0

Pointer List with Targets:

    g_ext_int_callback	PTR FTN()void  size(1) Largest target is 1
		 -> NULL(), 

    LCD_WriteString@str	PTR unsigned char  size(2) Largest target is 17
		 -> STR_17(CODE[5]), STR_18(CODE[3]), STR_19(CODE[14]), STR_20(CODE[12]), 
		 -> STR_22(CODE[17]), STR_23(CODE[17]), STR_24(CODE[17]), STR_25(CODE[17]), 
		 -> STR_26(CODE[17]), STR_27(CODE[17]), STR_28(CODE[17]), STR_29(CODE[17]), 
		 -> STR_30(CODE[17]), STR_31(CODE[16]), STR_32(CODE[16]), STR_33(CODE[17]), 
		 -> STR_34(CODE[16]), STR_35(CODE[17]), STR_36(CODE[17]), STR_37(CODE[17]), 
		 -> STR_38(CODE[17]), 

    UART_SendString@str	PTR const unsigned char  size(2) Largest target is 9
		 -> STR_1(CODE[3]), STR_10(CODE[3]), STR_11(CODE[4]), STR_12(CODE[8]), 
		 -> STR_13(CODE[7]), STR_14(CODE[8]), STR_15(CODE[8]), STR_16(CODE[3]), 
		 -> STR_2(CODE[4]), STR_21(CODE[9]), STR_3(CODE[4]), STR_4(CODE[4]), 
		 -> STR_5(CODE[4]), STR_6(CODE[6]), STR_7(CODE[7]), STR_8(CODE[5]), 
		 -> STR_9(CODE[7]), 


Critical Paths under _main in COMMON

    _UART_SendUInt->___lwdiv
    _UART_SendString->_UART_SendChar
    _UART_ReceiveChar->_UART_ClearErrors
    _UART_Init->_UART_ClearErrors
    _UART_DataAvailable->_UART_ClearErrors
    _SR04_GetDistance->___lwdiv
    _LCD_SetCursor->_LCD_Send_Byte
    _LCD_Init->_LCD_Send_Byte
    _I2C_Master_Init->___lldiv
    _LCD_Clear->_LCD_Send_Byte
    _LCD_WriteString->_LCD_Send_Byte
    _LCD_WriteChar->_LCD_Send_Byte
    _LCD_Send_Byte->_LCD_Send_Nibble
    _LCD_Send_Nibble->_I2C_Master_Write

Critical Paths under _ISR in COMMON

    None.

Critical Paths under _main in BANK0

    _main->_UART_SendLog
    _UART_SendLog->_UART_SendUInt
    _LCD_SetCursor->_LCD_Send_Byte
    _LCD_Init->_I2C_Master_Init
    _I2C_Master_Init->___lldiv
    _LCD_Clear->_LCD_Send_Byte
    _Display_Distance->_LCD_WriteNumber
    _LCD_WriteString->_LCD_Send_Byte
    _LCD_WriteNumber->_LCD_WriteChar
    _LCD_WriteChar->_LCD_Send_Byte

Critical Paths under _ISR in BANK0

    None.

Critical Paths under _main in BANK1

    None.

Critical Paths under _ISR in BANK1

    None.

Critical Paths under _main in BANK3

    None.

Critical Paths under _ISR in BANK3

    None.

Critical Paths under _main in BANK2

    None.

Critical Paths under _ISR in BANK2

    None.

Call Graph Tables:

 ---------------------------------------------------------------------------------
 (Depth) Function   	        Calls       Base Space   Used Autos Params    Refs
 ---------------------------------------------------------------------------------
 (0) _main                                                19    19      0    8836
                                             21 BANK0     19    19      0
                   _Display_Distance
                          _LCD_Clear
                           _LCD_Init
                      _LCD_SetCursor
                    _LCD_WriteString
                      _Motor_Forward
                         _Motor_Init
                      _Motor_Reverse
                         _Motor_Stop
                    _Motor_Turn_Left
                   _Motor_Turn_Right
                   _SR04_GetDistance
                          _SR04_Init
                 _UART_DataAvailable
                          _UART_Init
                   _UART_ReceiveChar
                       _UART_SendLog
                    _UART_SendString
 ---------------------------------------------------------------------------------
 (1) _UART_SendLog                                        12     5      7    1050
                                              9 BANK0     12     5      7
                      _UART_SendChar
                    _UART_SendString
                      _UART_SendUInt
 ---------------------------------------------------------------------------------
 (2) _UART_SendUInt                                        9     7      2     674
                                              0 BANK0      9     7      2
                      _UART_SendChar
                            ___lwdiv
                            ___lwmod
 ---------------------------------------------------------------------------------
 (2) _UART_SendString                                      2     0      2      90
                                              3 COMMON     2     0      2
                      _UART_SendChar
 ---------------------------------------------------------------------------------
 (3) _UART_SendChar                                        1     1      0      29
                                              2 COMMON     1     1      0
 ---------------------------------------------------------------------------------
 (1) _UART_ReceiveChar                                     0     0      0       1
                   _UART_ClearErrors
 ---------------------------------------------------------------------------------
 (1) _UART_Init                                            5     1      4       4
                                              3 COMMON     5     1      4
                   _UART_ClearErrors
 ---------------------------------------------------------------------------------
 (1) _UART_DataAvailable                                   1     1      0       1
                                              3 COMMON     1     1      0
                   _UART_ClearErrors
 ---------------------------------------------------------------------------------
 (2) _UART_ClearErrors                                     1     1      0       1
                                              2 COMMON     1     1      0
 ---------------------------------------------------------------------------------
 (1) _SR04_Init                                            0     0      0       0
 ---------------------------------------------------------------------------------
 (1) _SR04_GetDistance                                    10     8      2     700
                                              0 BANK0     10     8      2
               _TMR1_Start@SR04$F834
                _TMR1_Stop@SR04$F835
                            ___lwdiv
 ---------------------------------------------------------------------------------
 (2) _TMR1_Stop@SR04$F835                                  2     0      2       0
                                              2 COMMON     2     0      2
 ---------------------------------------------------------------------------------
 (2) _TMR1_Start@SR04$F834                                 0     0      0       0
 ---------------------------------------------------------------------------------
 (1) _Motor_Turn_Right                                     0     0      0       0
 ---------------------------------------------------------------------------------
 (1) _Motor_Turn_Left                                      0     0      0       0
 ---------------------------------------------------------------------------------
 (1) _Motor_Stop                                           0     0      0       0
 ---------------------------------------------------------------------------------
 (1) _Motor_Reverse                                        0     0      0       0
 ---------------------------------------------------------------------------------
 (1) _Motor_Init                                           0     0      0       0
 ---------------------------------------------------------------------------------
 (1) _Motor_Forward                                        0     0      0       0
 ---------------------------------------------------------------------------------
 (1) _LCD_SetCursor                                        7     6      1     887
                                              1 BANK0      7     6      1
                      _LCD_Send_Byte
 ---------------------------------------------------------------------------------
 (1) _LCD_Init                                             3     3      0    1292
                                             14 BANK0      3     3      0
                    _I2C_Master_Init
                      _LCD_Send_Byte
                    _LCD_Send_Nibble
 ---------------------------------------------------------------------------------
 (2) _I2C_Master_Init                                      8     4      4     287
                                              6 BANK0      8     4      4
                            ___lldiv
 ---------------------------------------------------------------------------------
 (3) ___lldiv                                             14     6      8     253
                                              2 COMMON     8     0      8
                                              0 BANK0      6     6      0
 ---------------------------------------------------------------------------------
 (1) _LCD_Clear                                            0     0      0     641
                      _LCD_Send_Byte
 ---------------------------------------------------------------------------------
 (1) _Display_Distance                                     2     0      2    2167
                                             11 BANK0      2     0      2
                    _LCD_WriteNumber
                    _LCD_WriteString
 ---------------------------------------------------------------------------------
 (2) _LCD_WriteString                                      2     0      2     769
                                              1 BANK0      2     0      2
                      _LCD_Send_Byte
 ---------------------------------------------------------------------------------
 (2) _LCD_WriteNumber                                      9     7      2    1327
                                              2 BANK0      9     7      2
                      _LCD_WriteChar
                            ___lwdiv
                            ___lwmod
 ---------------------------------------------------------------------------------
 (3) ___lwmod                                              5     1      4     167
                                              2 COMMON     5     1      4
 ---------------------------------------------------------------------------------
 (3) ___lwdiv                                              7     3      4     172
                                              2 COMMON     7     3      4
 ---------------------------------------------------------------------------------
 (3) _LCD_WriteChar                                        1     1      0     688
                                              1 BANK0      1     1      0
                      _LCD_Send_Byte
 ---------------------------------------------------------------------------------
 (4) _LCD_Send_Byte                                        4     3      1     641
                                              7 COMMON     3     2      1
                                              0 BANK0      1     1      0
                    _LCD_Send_Nibble
 ---------------------------------------------------------------------------------
 (5) _LCD_Send_Nibble                                      4     3      1     364
                                              3 COMMON     4     3      1
                   _I2C_Master_Start
                    _I2C_Master_Stop
                   _I2C_Master_Write
 ---------------------------------------------------------------------------------
 (6) _I2C_Master_Write                                     1     1      0      47
                                              2 COMMON     1     1      0
                    _I2C_Master_Wait
 ---------------------------------------------------------------------------------
 (6) _I2C_Master_Stop                                      0     0      0       0
                    _I2C_Master_Wait
 ---------------------------------------------------------------------------------
 (6) _I2C_Master_Start                                     0     0      0       0
                    _I2C_Master_Wait
 ---------------------------------------------------------------------------------
 (7) _I2C_Master_Wait                                      0     0      0       0
 ---------------------------------------------------------------------------------
 Estimated maximum stack depth 7
 ---------------------------------------------------------------------------------
 (Depth) Function   	        Calls       Base Space   Used Autos Params    Refs
 ---------------------------------------------------------------------------------
 (8) _ISR                                                  2     2      0       0
                                              0 COMMON     2     2      0
 ---------------------------------------------------------------------------------
 Estimated maximum stack depth 8
 ---------------------------------------------------------------------------------

 Call Graph Graphs:

 _main (ROOT)
   _Display_Distance
     _LCD_WriteNumber
       _LCD_WriteChar
         _LCD_Send_Byte
           _LCD_Send_Nibble
             _I2C_Master_Start
               _I2C_Master_Wait
             _I2C_Master_Stop
               _I2C_Master_Wait
             _I2C_Master_Write
               _I2C_Master_Wait
       ___lwdiv
       ___lwmod
     _LCD_WriteString
       _LCD_Send_Byte
   _LCD_Clear
     _LCD_Send_Byte
   _LCD_Init
     _I2C_Master_Init
       ___lldiv
     _LCD_Send_Byte
     _LCD_Send_Nibble
   _LCD_SetCursor
     _LCD_Send_Byte
   _LCD_WriteString
   _Motor_Forward
   _Motor_Init
   _Motor_Reverse
   _Motor_Stop
   _Motor_Turn_Left
   _Motor_Turn_Right
   _SR04_GetDistance
     _TMR1_Start@SR04$F834
     _TMR1_Stop@SR04$F835
     ___lwdiv
   _SR04_Init
   _UART_DataAvailable
     _UART_ClearErrors
   _UART_Init
     _UART_ClearErrors
   _UART_ReceiveChar
     _UART_ClearErrors
   _UART_SendLog
     _UART_SendChar
     _UART_SendString
       _UART_SendChar
     _UART_SendUInt
       _UART_SendChar
       ___lwdiv
       ___lwmod
   _UART_SendString

 _ISR (ROOT)

Address spaces:
Name               Size   Autos  Total    Usage
BANK3               96      0       0      0.0%
BITBANK3            96      0       0      0.0%
BANK2               96      0       0      0.0%
BITBANK2            96      0       0      0.0%
BANK1               80      0       0      0.0%
BITBANK1            80      0       0      0.0%
BANK0               80     40      45     56.2%
BITBANK0            80      0       0      0.0%
COMMON              14     10      12     85.7%
BITCOMMON           14      0       0      0.0%
DATA                 0      0      57      0.0%
STACK                0      0       0      0.0%


Microchip Technology PIC Macro Assembler V3.10 build 20250813170317 
Symbol Table                                                                                   Tue May 19 01:23:14 2026

      UART_SendLog@belt_state 0029                             pc 0002                            l20 0CA7  
                          l23 0C76                            l31 0C53                            l25 0C7C  
                          l41 04F7                            l50 0C47                            l28 0C49  
                          l53 0C66                            l37 0D0D                            l56 0C6D  
                          l67 0FFF                            fsr 0004                 _LCD_Send_Byte 0DD0  
               _LCD_SetCursor 0CC6                           l205 0C19                           l208 0C24  
                         l332 0C2F                           l405 0D37                           l341 0BEA  
                         l190 0D97                           l335 0BF1                           l344 0BF8  
                         l193 0C54                           l409 0EF8                           l338 0BE3  
                         l347 0BFF                           l451 07FE                           l196 0C60  
                         l365 0E58                           l366 0E5D                           l454 04FF  
                         l199 0C10                           l367 0E62                           l383 0E0A  
                         l376 0EA2                           l368 0E67                           l457 0CC5  
                         l561 021B                           l386 0F7B                           l474 073F  
                         l466 078F                           l555 0D61                           l395 0CDD  
                         l467 0707                           l396 0CE7                           l389 0C07  
                         l399 0C3B                           l727 07F5                           l579 0224  
                         l971 0E4C                           l981 0DCF                           _ISR 0C7D  
                         fsr0 0004             ??_LCD_WriteNumber 007A                           indf 0000  
           ??_LCD_WriteString 007A                          ?_ISR 0070                          l3001 0C16  
                        l3003 0C1B                          l3011 0E57                          l3005 0C20  
                        l3021 0E6C                          l3013 0E5C                          l3101 0D27  
                        l2301 0C7A                          l2221 0C4F                          l3031 0E99  
                        l3023 0E83                          l3015 0E61                          l3007 0E4E  
                        l3111 0EB3                          l3103 0EA3                          l2303 0CE8  
                        l3033 0E9E                          l3025 0E87                          l3017 0E66  
                        l3009 0E52                          l3041 0DFC                          l3121 0EF1  
                        l3113 0EC7                          l3105 0EA6                          l3201 06B7  
                        l2305 0CE9                          l3027 0E8C                          l3019 0E6B  
                        l3043 0E06                          l3035 0DD3                          l2251 0E0D  
                        l3115 0ECB                          l3107 0EAC                          l3051 07A5  
                        l3211 06D0                          l3203 06BE                          l2219 0C49  
                        l2307 0CF7                          l3131 0FB0                          l3123 0F7F  
                        l3029 0E92                          l3037 0DEF                          l3045 0C33  
                        l2261 0E23                          l2253 0E13                          l3117 0EDE  
                        l3061 07DD                          l3053 07B0                          l3213 06D4  
                        l3205 06C2                          l2309 0CFD                          l3141 0FDA  
                        l3133 0FC4                          l3125 0F88                          l3039 0DF6  
                        l2263 0E34                          l2255 0E16                          l2271 0E48  
                        l3119 0EE5                          l3063 07DE                          l3055 07B4  
                        l3047 0790                          l2431 0BEB                          l3231 06F3  
                        l3223 06E3                          l3207 06C8                          l3071 04A2  
                        l3151 0FF9                          l3143 0FE3                          l3135 0FCB  
                        l3127 0F93                          l2265 0E3A                          l2257 0E1D  
                        l2249 0E0B                          l2281 0DA8                          l3065 07E7  
                        l3057 07BD                          l3049 07A2                          l3161 0F2F  
                        l3153 0EF9                          l2433 0BDD                          l3225 06E8  
                        l3217 06D9                          l3209 06C9                          l3081 04C6  
                        l3073 04A5                          l3145 0FEA                          l3137 0FD0  
                        l3129 0FA7                          l3401 0125                          l2267 0E3B  
                        l2259 0E1F                          l2291 0DC5                          l2283 0DAA  
                        l2275 0D98                          l3059 07CF                          l3067 07ED  
                        l3091 0D62                          l3171 0F66                          l3163 0F41  
                        l3155 0F08                          l2427 0C25                          l2435 0BE4  
                        l2363 07F6                          l2371 04F8                          l3251 072A  
                        l3243 071A                          l3235 06F8                          l3219 06DE  
                        l3083 04CA                          l3075 04AB                          l3147 0FEF  
                        l3139 0FD4                          l3411 0146                          l3403 012E  
                        l3331 002E                          l2269 0E42                          l2285 0DAE  
                        l2277 0D9E                          l2293 0DCB                          l3093 0D6C  
                        l3173 0F6D                          l3165 0F49                          l3157 0F16  
                        l3181 0CCE                          l2429 0C2B                          l2437 0BF2  
                        l2365 07F9                          l2373 04FB                          l3253 072F  
                        l3245 0720                          l3229 06ED                          l3237 0710  
                        l2381 0C9F                          l3085 04DD                          l3149 0FF3  
                        l3501 029C                          l3421 0173                          l3413 014B  
                        l3405 013A                          l3341 0056                          l3333 0034  
                        l2287 0DB8                          l2279 0DA1                          l3095 0D0E  
                        l3175 0F74                          l3167 0F58                          l3159 0F28  
                        l3183 0CD6                          l2439 0BF9                          l2367 07FB  
                        l3263 0745                          l3247 0725                          l3191 06A5  
                        l2383 0CA5                          l2391 0C61                          l3087 04E4  
                        l3079 04B2                          l3511 02C7                          l3503 02A8  
                        l3431 0188                          l3423 0179                          l3415 0154  
                        l3407 0140                          l3351 0098                          l3343 0064  
                        l3335 0039                          l2289 0DBE                          l3097 0D0F  
                        l3281 0D43                          l3177 0C00                          l3169 0F5F  
                        l3185 0CDF                          l2369 07FC                          l3273 076B  
                        l3265 0750                          l3257 0734                          l3193 06A6  
                        l2297 0C6E                          l2385 0C3C                          l2377 0C8D  
                        l2393 0C6C                          l3089 04F0                          l3601 0451  
                        l3521 02F3                          l3513 02D0                          l3505 02AE  
                        l3441 01B0                          l3433 018D                          l3425 017D  
                        l3417 015F                          l3409 0141                          l3361 00C1  
                        l3353 00A1                          l3345 007F                          l3337 004C  
                        l3099 0D1F                          l3283 0D4D                          l3179 0CC9  
                        l3275 077A                          l3267 0754                          l3259 073A  
                        l3195 06AD                          l3187 069E                          l2475 0CA8  
                        l2299 0C74                          l2387 0C41                          l2379 0C9A  
                        l3603 045F                          l3531 0319                          l3523 0307  
                        l3507 02B3                          l3515 02DC                          l3451 01DB  
                        l3443 01BC                          l3435 0196                          l3419 0168  
                        l3427 0182                          l3371 00D0                          l3363 00C3  
                        l3355 00AC                          l3347 0084                          l3339 0051  
                        l3285 0D56                          l3269 0755                          l3197 06B1  
                        l3189 06A0                          l3541 034A                          l3525 030D  
                        l3517 02E1                          l3509 02BC                          l3533 0327  
                        l3453 01E4                          l3445 01C1                          l3437 01A2  
                        l3381 00EE                          l3373 00D2                          l3365 00C7  
                        l3357 00BB                          l3349 008D                          l3279 0D38  
                        l3199 06B6                          l3551 038C                          l3543 0361  
                        l3535 032E                          l3607 0473                          l3527 0311  
                        l3519 02E8                          l3471 0230                          l3455 01F0  
                        l3447 01CA                          l3439 01A7                          l3463 020A  
                        l3391 0105                          l3383 00F4                          l3375 00D3  
                        l3367 00CB                          l3359 00BF                          l3609 0490  
                        l3561 03BA                          l3553 0397                          l3545 036D  
                        l3537 0333                          l3529 0315                          l3481 0246  
                        l3473 0233                          l3465 0221                          l3457 01F5  
                        l3449 01D6                          l3393 0107                          l3385 00F7  
                        l3377 00DC                          l3369 00CF                          l3571 03E3  
                        l3563 03C0                          l3555 039D                          l3547 0378  
                        l3539 033F                          l3483 024B                          l3491 0274  
                        l3467 0228                          l3475 0234                          l3459 01FE  
                        l3395 010C                          l3387 00FD                          l3379 00E6  
                        l3581 0411                          l3573 03EC                          l3565 03CA  
                        l3557 03A7                          l3549 0384                          l3493 027A  
                        l3485 0254                          l3477 023A                          l3469 022B  
                        l3397 0111                          l3389 00FF                          l3591 043D  
                        l3583 041A                          l3575 03F2                          l3567 03D2  
                        l3559 03AF                          l3495 027F                          l3487 025F  
                        l3479 023F                          l3399 011A                          l3593 0446  
                        l3585 041F                          l3577 03F7                          l3569 03DD  
                        l3497 0288                          l3489 0268                          l3587 042D  
                        l3579 0405                          l3499 0293                          l3589 0433  
                        l2991 0C54                          l3599 044C                          l2993 0C5A  
                        l2995 0C08                          l2997 0C0D                          l2999 0C11  
                        STR_1 0698                          STR_2 068A                          STR_3 068E  
                        STR_4 0686                          STR_5 0682                          STR_6 066E  
                        STR_7 0667                          STR_8 0679                          STR_9 0660  
          LCD_WriteString@str 0021                          u3000 0D43                          u3001 0D42  
                        u3100 0105                          u3101 0104                          u3110 0140  
                        u3111 013F                          u3200 02E1                          u3120 0187  
                        u3201 02E0                          u3121 0186                          u3210 032E  
                        u3130 0221                          u3211 032D                          u3131 0220  
                        u1700 0D9E                          u3300 0446                          u3220 0333  
                        u3140 0228                          u1701 0D9D                          u3301 0445  
                        u3221 0332                          u3141 0227                          u1630 0E13  
                        u1550 0C4F                          u3230 0384                          u3150 0230  
                        u3070 00E6                          u1631 0E12                          u1551 0C4E  
                        u3231 0383                          u3151 022F                          u3071 00E5  
                        u1720 0DAE                          u3240 03A7                          u3160 023A  
                        u3080 00F4                          u1721 0DAD                          u3241 03A6  
                        u3161 0239                          u3081 00F3                          u2530 0C5A  
                        u2610 0DF6                          u1650 0E23                          u1730 0DB8  
                        u3250 03CA                          u3170 0246                          u3090 00FD  
                        u2531 0C59                          u2611 0DF5                          u1651 0E22  
                        u1731 0DB7                          u1715 0DA2                          u3251 03C9  
                        u3235 0380                          u3171 0245                          u3091 00FC  
                        u2540 0C60                          u2620 0DFC                          u2700 04AB  
                        u3260 03EC                          u3180 027A                          u2541 0C5F  
                        u2621 0DFB                          u2605 0DD8                          u1645 0E17  
                        u2701 04AA                          u3261 03EB                          u3245 03A3  
                        u3181 0279                          u3317 0041                          u2550 0E57  
                        u1670 0E34                          u1750 0DCB                          u2630 07A2  
                        u2710 04E3                          u3270 0411                          u3190 02AE  
                        u2551 0E56                          u1671 0E33                          u1751 0DCA  
                        u1735 0DB4                          u2631 07A1                          u2711 04E2  
                        u3407 0427                          u3271 0410                          u3255 03C6  
                        u3191 02AD                          u3327 005E                          _PIE1 008C  
                        u2560 0E5C                          u2800 0CCE                          u1760 0C74  
                        u2720 04F7                          u3280 041A                          u2561 0E5B  
                        u1665 0E24                          u1745 0DBF                          u2801 0CCD  
                        u1761 0C73                          u2721 04F6                          u3417 0459  
                        u3281 0419                          u3337 0079                          u2570 0E61  
                        u1690 0E48                          u2650 07B4                          u2730 0D7A  
                        u2810 06A5                          u1770 0C7A                          u3290 043D  
                        u2571 0E60                          u1691 0E47                          u1675 0E30  
                        u2651 07B3                          u3507 0F10                          u2811 06A4  
                        u1771 0C79                          u3427 046C                          u3291 043C  
                        u3275 040D                          u3347 00B4                          u2580 0E66  
                        u2740 0D37                          u2900 0710                          u2820 06B6  
                        u1780 0D0D                          u2581 0E65                          u1685 0E3C  
                        u2741 0D36                          u2645 07A7                          u3517 0F23  
                        u2901 070F                          u2821 06B5                          u1781 0D0C  
                        u3437 0498                          u3357 0321                          u2590 0E6B  
                        u2750 0EAC                          u2670 07CF                          u2910 0719  
                        u2830 06C8                          u1870 0CA5                          u2591 0E6A  
                        u2751 0EAB                          u2671 07CE                          u2735 0D75  
                        u3527 0F35                          u2911 0718                          u2831 06C7  
                        u3447 06AA                          u1871 0CA4                          u3295 0439  
                        u3367 0345                          u2760 0EE4                          u2920 0725  
                        u2840 06DE                          u1880 0C6C                          u2761 0EE3  
                        u2665 07B6                          u3537 0F45                          u2921 0724  
                        u2841 06DD                          u3457 06BB                          u1881 0C6B  
                        u3377 035C                          u2770 0EF8                          u2690 07ED  
                        u2930 0729                          u2850 06E2                          u2771 0EF7  
                        u2691 07EC                          u2675 07CB                          u3547 0F54  
                        u2931 0728                          u2851 06E1                          u3467 06CD  
                        u3387 0373                          u2940 072F                          u2860 06E8  
                        u2780 0FCB                          u3557 0E00                          u2685 07DF  
                        u2941 072E                          u3477 06FC                          u2861 06E7  
                        u2781 0FCA                          u3397 03FF                          u2950 0733  
                        u2870 06EC                          u2790 0FEA                          u3567 0E08  
                        u3487 075D                          u2951 0732                          u2871 06EB  
                        u2791 0FE9                          u2960 073A                          u2880 06F3  
                        u3577 0E85                          u3497 0773                          u2961 0739  
                        u2881 06F2                          u2970 073E                          u2890 06F7  
                        u3587 0EA0                          u2971 073D                          u2891 06F6  
                        u2980 0745                          u2981 0744                          u2990 0754  
                        u2991 0753                          _PIR1 000C                          _TMR1 000E  
           main@current_state 0047              _Motor_Turn_Right 0BF9                          _main 002E  
                        btemp 007E                          start 000C                 _LCD_WriteChar 0C30  
      UART_SendLog@door_state 0030               _LCD_Send_Nibble 0E4D                         ??_ISR 0070  
            __end_of_LCD_Init 0F7C              ?_I2C_Master_Init 0026                ?_LCD_Send_Byte 0077  
            ?_I2C_Master_Wait 0070                ?_LCD_SetCursor 0021              ?_I2C_Master_Stop 0070  
           UART_SendChar@data 0072                         ?_main 0070                         STR_10 0695  
                       STR_11 067E                         STR_12 0651                         STR_20 062C  
                       STR_13 0659                         STR_21 0638                         STR_14 0649  
                       STR_22 0599                         STR_30 0511                         STR_15 0641  
                       STR_31 05FE                         STR_23 0555                         STR_16 0692  
                       STR_32 05EE                         STR_24 0533                         STR_17 0674  
                       STR_33 05CC                         STR_25 05AA                         STR_18 050E  
                       STR_34 060E                         STR_26 0577                         STR_19 061E  
                       STR_35 05DD                         STR_27 0588                         STR_36 0566  
                       STR_28 0522                         STR_29 0544                         STR_37 0500  
                       STR_38 05BB               __end_of___lldiv 07F6                         _T1CON 0010  
             __end_of___lwdiv 0E4D                         i1l167 0C86               __end_of___lwmod 0DD0  
                       _RCREG 001A                         _TMR1H 000F                         _TMR1L 000E  
                       _SPBRG 0099                         _PORTA 0005                         _PORTB 0006  
                       _PORTC 0007                         _PORTD 0008                         _PORTE 0009  
                       _TRISA 0085                         _TRISB 0086                         _TRISC 0087  
                       _TRISD 0088                         _TRISE 0089                         _TXREG 0019  
       LCD_Send_Nibble@nibble 0076                         btemp0 007E                         btemp1 007F  
                       main@f 0041                         main@l 0043                         main@r 0045  
            ?_UART_SendString 0073                         pclath 000A                         status 0003  
                       wtemp0 007E                ?_LCD_WriteChar 0070               __initialization 000F  
                __end_of_main 04A2         __end_of_Motor_Forward 0BE4         __end_of_Motor_Reverse 0BEB  
                      ??_main 0035             __end_of_LCD_Clear 0C08             ?_I2C_Master_Start 0070  
           ?_I2C_Master_Write 0070            ??_I2C_Master_Start 0072                        _ADCON1 009F  
          ??_I2C_Master_Write 0072             __end_of_SR04_Init 0CC6             ?_UART_ReceiveChar 0070  
                      i1l2611 0C85                        i1l2607 0C7D                        i1l2609 0C81  
                      u216_20 0C81                        u216_21 0C80                        u217_20 0C85  
                      _INTCON 000B                        u217_21 0C84                        _TMR1IF 0060  
          ??_UART_ReceiveChar 0073                        _SSPADD 0093                        _SSPCON 0014  
                      _SSPBUF 0013       __end_of_LCD_Send_Nibble 0EA3                    _Motor_Init 0C25  
           __end_of_UART_Init 0CA8                    _Motor_Stop 0BEB               ??_LCD_Send_Byte 0078  
             ??_LCD_SetCursor 0022                     ??___lldiv 0020  __end_of_TMR1_Start@SR04$F834 07FF  
                   ??___lwdiv 0076                     ??___lwmod 0076               LCD_Send_Byte@rs 0077  
                      ltemp0a 0080                        saved_w 007E           _TMR1_Stop@SR04$F835 04F8  
                      ttemp0a 007F                        wtemp0a 007F         __end_of_UART_SendChar 0C54  
       __end_of_UART_SendUInt 04F8              LCD_WriteNumber@i 002A              _SR04_GetDistance 069B  
          UART_SendLog@f_dist 002A       __end_of__initialization 002A                     ?_LCD_Init 0070  
          UART_SendLog@l_dist 002C               ??_LCD_WriteChar 007A            UART_SendLog@r_dist 002E  
        ?_TMR1_Stop@SR04$F835 0072                __pcstackCOMMON 0070               _LCD_WriteNumber 0EA3  
                __pidataBANK0 0BD9               _LCD_WriteString 0D0E             ??_Motor_Turn_Left 0072  
           _LCD_SetCursor$691 0026      __end_of_Motor_Turn_Right 0C00                _OPTION_REGbits 0081  
                  __pbssBANK0 004C                    ??_LCD_Init 002E              ?_LCD_Send_Nibble 0073  
       ??_TMR1_Stop@SR04$F835 0074            main@previous_state 0038                    __pmaintext 002E  
                 ?_Motor_Init 0070                   ?_Motor_Stop 0070                    __pintentry 0004  
              UART_Init@dummy 0077            _g_ext_int_callback 004C                main@drive_mode 003F  
                     _SSPCON2 0091                       _SSPSTAT 0094                    __stringtab 0800  
        _TMR1_Start@SR04$F834 07F6                 ?_UART_SendLog 0029                UART_SendUInt@i 0028  
     __end_of_LCD_WriteNumber 0EF9       __end_of_LCD_WriteString 0D38            UART_SendString@str 0073  
                     ___lldiv 0790                       ___lwdiv 0E0B                       ___lwmod 0D98  
                     __ptext1 0F7C                       __ptext2 04A2                       __ptext3 0CE8  
                     __ptext4 0C48                       __ptext5 0C61                       __ptext6 0C8D  
                     __ptext7 0C3C                       __ptext8 0C6E                       __ptext9 0CA8  
                     _g_state 007B    __end_of_UART_DataAvailable 0C48                     _T1CONbits 0010  
     LCD_Send_Nibble@byte_val 0075                     _LCD_Clear 0C00                       main@cmd 0040  
       UART_ClearErrors@dummy 0072          end_of_initialization 002A         ?_TMR1_Start@SR04$F834 0070  
            _Display_Distance 0D38              LCD_SetCursor@col 0021              LCD_SetCursor@row 0024  
              ??_UART_SendLog 0079                     _SR04_Init 0CA8               ___lldiv@divisor 0072  
             ___lldiv@counter 0025                     _RCSTAbits 0018              _UART_ClearErrors 0C6E  
                __pstringtext 0500      __end_of_SR04_GetDistance 0790                     _UART_Init 0C8D  
                   _PORTAbits 0005                     _PORTBbits 0006                     _PORTCbits 0007  
                   _PORTDbits 0008            UART_Init@baud_rate 0073                     _TRISAbits 0085  
                   _TRISBbits 0086                     _TRISCbits 0087                     _TRISDbits 0088  
                  ?_LCD_Clear 0070                     _TXSTAbits 0098                    ?_SR04_Init 0070  
             _Motor_Turn_Left 0BF2              ?_LCD_WriteNumber 0022              ?_LCD_WriteString 0021  
       __end_of_LCD_Send_Byte 0E0B         __end_of_LCD_SetCursor 0CE8                    ?_UART_Init 0073  
           ?_Motor_Turn_Right 0070              UART_SendUInt@buf 0022              UART_SendUInt@num 0020  
          ??_Motor_Turn_Right 0072           start_initialization 000F                   __end_of_ISR 0C8D  
      ??_TMR1_Start@SR04$F834 0072             ??_I2C_Master_Init 002A             ??_I2C_Master_Wait 0072  
           ??_I2C_Master_Stop 0072      I2C_Master_Init@baud_rate 0026         __end_of_LCD_WriteChar 0C3C  
                ??_Motor_Init 0072                  ??_Motor_Stop 0072       SR04_GetDistance@timeout 0027  
                 __pdataBANK0 0048                 _Motor_Forward 0BDD             ??_UART_SendString 0075  
        __end_of_UART_SendLog 1000                 _Motor_Reverse 0BE4                   __pbssCOMMON 007A  
                   ___latbits 0002                 __pcstackBANK0 0020                   ??_LCD_Clear 007A  
     __end_of_Motor_Turn_Left 0BF9            __end_of_Motor_Init 0C30            __end_of_Motor_Stop 0BF2  
 __end_of_TMR1_Stop@SR04$F835 0500                   ??_SR04_Init 0072              _I2C_Master_Start 0C08  
            _I2C_Master_Write 0C1A              ___lwdiv@dividend 0074              _UART_ReceiveChar 0C61  
                    ?___lldiv 0072                      ?___lwdiv 0072                      ?___lwmod 0072  
              ?_Motor_Forward 0070                   ??_UART_Init 0077      __end_of_Display_Distance 0D62  
        I2C_Master_Write@data 0072                     __pstrings 0800                ?_Motor_Reverse 0070  
            _UART_SendLog$212 0031              _UART_SendLog$214 0033              ___lwdiv@quotient 0076  
    __end_of_UART_ClearErrors 0C7D                     _eyes_open 004A                 _UART_SendChar 0C48  
               _UART_SendUInt 04A2            _UART_DataAvailable 0C3C             interrupt_function 0004  
                    _LCD_Init 0EF9                      _PIE1bits 008C           ?_UART_DataAvailable 0070  
                    _PIR1bits 000C                   _g_suspended 007A             ?_SR04_GetDistance 0020  
                 __stringbase 0812            ??_SR04_GetDistance 0022          ??_UART_DataAvailable 0073  
                   main@old_f 0039                     main@old_l 003B                     main@old_r 003D  
              ?_UART_SendChar 0070              ?_Motor_Turn_Left 0070                ?_UART_SendUInt 0020  
              LCD_WriteChar@c 0021               ??_Motor_Forward 0072               ??_Motor_Reverse 0072  
          __end_of__stringtab 0812             ??_LCD_Send_Nibble 0074               _I2C_Master_Init 0D62  
             _I2C_Master_Wait 0C54               _I2C_Master_Stop 0C11               ___lwdiv@divisor 0072  
             ___lwdiv@counter 0078                      __ptext10 069B                      __ptext11 04F8  
                    __ptext20 0EF9                      __ptext12 07F6                      __ptext21 0D62  
                    __ptext13 0BF9                      __ptext30 0DD0                      __ptext22 0790  
                    __ptext14 0BF2                      __ptext31 0E4D                      __ptext23 0C00  
                    __ptext15 0BEB                      __ptext32 0C1A                      __ptext24 0D38  
                    __ptext16 0BE4                      __ptext33 0C11                      __ptext25 0D0E  
                    __ptext17 0C25                      __ptext34 0C08                      __ptext26 0EA3  
                    __ptext18 0BDD                      __ptext35 0C54                      __ptext27 0D98  
                    __ptext19 0CC6                      __ptext36 0C7D                      __ptext28 0E0B  
                    __ptext29 0C30                  _UART_SendLog 0F7C                 _g_pulse_ticks 0048  
             _UART_SendString 0CE8                 _lcd_backlight 004B          Display_Distance@dist 002B  
           LCD_Send_Byte@data 0020             LCD_Send_Nibble@rs 0073      __end_of_I2C_Master_Start 0C11  
    __end_of_I2C_Master_Write 0C25                    _INTCONbits 000B             LCD_SetCursor@addr 0025  
       SR04_GetDistance@ticks 0025               ??_UART_SendChar 0072               ??_UART_SendUInt 0079  
    __end_of_UART_ReceiveChar 0C6E                      intlevel1 0000              ___lwmod@dividend 0074  
            ___lldiv@dividend 0076                     stringcode 080A       __end_of_I2C_Master_Init 0D98  
     __end_of_I2C_Master_Wait 0C61       __end_of_I2C_Master_Stop 0C1A             ?_Display_Distance 002B  
                  _OPTION_REG 0081            ??_Display_Distance 007A              ___lldiv@quotient 0021  
             ___lwmod@divisor 0072               ___lwmod@counter 0076                      stringtab 0800  
                 _SSPCON2bits 0091       __end_of_UART_SendString 0D0E             ?_UART_ClearErrors 0070  
          LCD_WriteNumber@buf 0024            ??_UART_ClearErrors 0072            LCD_WriteNumber@num 0022  
   SR04_GetDistance@sensor_id 0029  
